ccollections
defaultdict
p0
(c__builtin__
list
p1
tp2
Rp3
cnumpy.core.multiarray
scalar
p4
(cnumpy
dtype
p5
(S'i4'
p6
I0
I1
tp7
Rp8
(I3
S'<'
p9
NNNI-1
I-1
I0
tp10
bS'\x01\x10\x02\x00'
p11
tp12
Rp13
(lp14
F144.5
aF137.5
aF147.5
aI3217
aF18.31544519376496
aI8
ag13
asg4
(g8
S'\x05 \x02\x00'
p15
tp16
Rp17
(lp18
F184.5
aF53.5
aF38.5
aI2529
aF16.90376328428101
aI5
ag17
asg4
(g8
S'\x06\x00\x01\x00'
p19
tp20
Rp21
(lp22
F93.5
aF168.5
aF230.5
aI6157
aF22.739985168390863
aI6
ag21
asg4
(g8
S'\x08\xf8\x02\x00'
p23
tp24
Rp25
(lp26
F116.5
aF49.5
aF79.5
aI5834
aF22.33517026328786
aI16
ag25
asg4
(g8
S'\n\x10\x03\x00'
p27
tp28
Rp29
(lp30
F193.5
aF108.5
aF120.5
aI450
aF9.507608651323626
aI3
ag29
asg4
(g8
S'W\x19\x04\x00'
p31
tp32
Rp33
(lp34
F65.5
aF102.5
aF148.5
aI2678
aF17.22941969194488
aI8
ag33
asg4
(g8
S'\x0cH\x00\x00'
p35
tp36
Rp37
(lp38
F97.5
aF93.5
aF168.5
aI4701
aF20.784067441543296
aI10
ag37
asg4
(g8
S'\x0f\x08\x01\x00'
p39
tp40
Rp41
(lp42
F103.5
aF188.5
aF234.5
aI470
aF9.646425440239076
aI5
ag41
asg4
(g8
S'\x11\xc8\x01\x00'
p43
tp44
Rp45
(lp46
F30.5
aF107.5
aF129.5
aI1733
aF14.902757918599368
aI6
ag45
asg4
(g8
S'\x13\x88\x00\x00'
p47
tp48
Rp49
(lp50
F117.5
aF88.5
aF147.5
aI95
aF5.661197779576941
aI2
ag49
asg4
(g8
S'\x14\x98\x01\x00'
p51
tp52
Rp53
(lp54
F135.5
aF121.5
aF288.5
aI9154
aF25.953987746662058
aI10
ag53
asg4
(g8
S'\x16\x88\x01\x00'
p55
tp56
Rp57
(lp58
F103.5
aF200.5
aF195.5
aI4293
aF20.164498345586022
aI4
ag57
asg4
(g8
S'Yy\x00\x00'
p59
tp60
Rp61
(lp62
F122.5
aF130.5
aF73.5
aI3663
aF19.125498576249065
aI9
ag61
asg4
(g8
S'\x1d0\x01\x00'
p63
tp64
Rp65
(lp66
F106.5
aF177.5
aF40.5
aI4169
aF19.968453176894933
aI6
ag65
asg4
(g8
S'\x1e\xe8\x04\x00'
p67
tp68
Rp69
(lp70
F168.5
aF55.5
aF287.5
aI6013
aF22.56130381412977
aI6
ag69
asg4
(g8
S'!@\x03\x00'
p71
tp72
Rp73
(lp74
F147.5
aF119.5
aF67.5
aI2595
aF17.049549702886576
aI6
ag73
asg4
(g8
S'\xe3\xbe\x04\x00'
p75
tp76
Rp77
(lp78
F165.5
aF91.5
aF216.5
aI4341
aF20.239373011081536
aI8
ag77
asg4
(g8
S'\x06\xe8\x04\x00'
p79
tp80
Rp81
(lp82
F93.5
aF41.5
aF104.5
aI5160
aF21.43961717968578
aI7
ag81
asg4
(g8
S'(h\x02\x00'
p83
tp84
Rp85
(lp86
F91.5
aF147.5
aF147.5
aI252
aF7.8367135542065425
aI4
ag85
asg4
(g8
S'\x07\\\x03\x00'
p87
tp88
Rp89
(lp90
F178.5
aF126.5
aF249.5
aI4303
aF20.180143086399497
aI4
ag89
asg4
(g8
S'-\xe0\x02\x00'
p91
tp92
Rp93
(lp94
F111.5
aF186.5
aF56.5
aI1635
aF14.616376169441269
aI6
ag93
asg4
(g8
S'.\xa8\x03\x00'
p95
tp96
Rp97
(lp98
F159.5
aF116.5
aF126.5
aI3344
aF18.553359031538136
aI7
ag97
asg4
(g8
S'58\x02\x00'
p99
tp100
Rp101
(lp102
F29.5
aF118.5
aF119.5
aI3496
aF18.83031566968797
aI8
ag101
asg4
(g8
S'6\x88\x04\x00'
p103
tp104
Rp105
(lp106
F168.5
aF137.5
aF273.5
aI2330
aF16.448227324554892
aI5
ag105
asg4
(g8
S'7\xf0\x04\x00'
p107
tp108
Rp109
(lp110
F31.5
aF118.5
aF74.5
aI1596
aF14.499223850799392
aI5
ag109
asg4
(g8
S'\xb4J\x02\x00'
p111
tp112
Rp113
(lp114
F86.5
aF72.5
aF195.5
aI1877
aF15.304596477633378
aI8
ag113
asg4
(g8
S':\xf0\x02\x00'
p115
tp116
Rp117
(lp118
F108.5
aF109.5
aF305.5
aI453
aF9.528689892519017
aI1
ag117
asg4
(g8
S'<\xd8\x02\x00'
p119
tp120
Rp121
(lp122
F73.5
aF70.5
aF149.5
aI1728
aF14.8884117815856
aI6
ag121
asg4
(g8
S'=\x80\x00\x00'
p123
tp124
Rp125
(lp126
F26.5
aF112.5
aF149.5
aI13320
aF29.41046340501492
aI10
ag125
asg4
(g8
S'?\x80\x04\x00'
p127
tp128
Rp129
(lp130
F165.5
aF61.5
aF98.5
aI2592
aF17.04297701537986
aI5
ag129
asg4
(g8
S'C\x18\x03\x00'
p131
tp132
Rp133
(lp134
F172.5
aF164.5
aF96.5
aI2900
aF17.69293132747037
aI8
ag133
asg4
(g8
S'E\x00\x03\x00'
p135
tp136
Rp137
(lp138
F80.5
aF192.5
aF172.5
aI3042
aF17.977123244772425
aI5
ag137
asg4
(g8
S'H\xe0\x00\x00'
p139
tp140
Rp141
(lp142
F59.5
aF125.5
aF57.5
aI4212
aF20.036871519145127
aI8
ag141
asg4
(g8
S'J\x98\x01\x00'
p143
tp144
Rp145
(lp146
F134.5
aF47.5
aF112.5
aI2231
aF16.211890037149185
aI7
ag145
asg4
(g8
S'T`\x01\x00'
p147
tp148
Rp149
(lp150
F126.5
aF133.5
aF196.5
aI1270
aF13.435949604261301
aI7
ag149
asg4
(g8
S'\\\xd0\x03\x00'
p151
tp152
Rp153
(lp154
F147.5
aF136.5
aF35.5
aI5379
aF21.738736946842145
aI3
ag153
asg4
(g8
S'\x10\x8c\x04\x00'
p155
tp156
Rp157
(lp158
F45.5
aF62.5
aF150.5
aI2183
aF16.094779745060336
aI4
ag157
asg4
(g8
S'f\xb0\x00\x00'
p159
tp160
Rp161
(lp162
F110.5
aF31.5
aF186.5
aI6975
aF23.705467791231158
aI4
ag161
asg4
(g8
S'o(\x01\x00'
p163
tp164
Rp165
(lp166
F128.5
aF92.5
aF293.5
aI7890
aF24.69976342714109
aI3
ag165
asg4
(g8
S'p\xf0\x02\x00'
p167
tp168
Rp169
(lp170
F100.5
aF66.5
aF75.5
aI2472
aF16.775801603485213
aI14
ag169
asg4
(g8
S'rx\x03\x00'
p171
tp172
Rp173
(lp174
F122.5
aF51.5
aF283.5
aI1719
aF14.862518839275044
aI5
ag173
asg4
(g8
S's`\x00\x00'
p175
tp176
Rp177
(lp178
F126.5
aF99.5
aF184.5
aI3261
aF18.398569549587837
aI10
ag177
asg4
(g8
S'y\xf0\x04\x00'
p179
tp180
Rp181
(lp182
F75.5
aF148.5
aF49.5
aI4214
aF20.04004241198476
aI4
ag181
asg4
(g8
S'}8\x02\x00'
p183
tp184
Rp185
(lp186
F132.5
aF155.5
aF38.5
aI2511
aF16.863563933286986
aI4
ag185
asg4
(g8
S'\x89\xb8\x03\x00'
p187
tp188
Rp189
(lp190
F115.5
aF174.5
aF82.5
aI1415
aF13.928978643787143
aI4
ag189
asg4
(g8
S'\x8a\xe0\x03\x00'
p191
tp192
Rp193
(lp194
F62.5
aF86.5
aF137.5
aI3295
aF18.46229129334244
aI7
ag193
asg4
(g8
S'\x8c\xcc\x04\x00'
p195
tp196
Rp197
(lp198
F149.5
aF64.5
aF92.5
aI1059
aF12.646366950388915
aI5
ag197
asg4
(g8
S'\x92\xf0\x00\x00'
p199
tp200
Rp201
(lp202
F162.5
aF183.5
aF127.5
aI8313
aF25.133504725425993
aI7
ag201
asg4
(g8
S'\x95\x18\x03\x00'
p203
tp204
Rp205
(lp206
F78.5
aF81.5
aF96.5
aI1836
aF15.192340476938803
aI8
ag205
asg4
(g8
S'\x97\xe8\x01\x00'
p207
tp208
Rp209
(lp210
F51.5
aF148.5
aF108.5
aI5601
aF22.03377871243636
aI10
ag209
asg4
(g8
S'\x9c\x88\x03\x00'
p211
tp212
Rp213
(lp214
F148.5
aF57.5
aF318.5
aI3884
aF19.502645784000364
aI3
ag213
asg4
(g8
S'\x9d \x03\x00'
p215
tp216
Rp217
(lp218
F123.5
aF169.5
aF84.5
aI93
aF5.62118797776233
aI2
ag217
asg4
(g8
S'\x9e\xb8\x03\x00'
p219
tp220
Rp221
(lp222
F186.5
aF70.5
aF183.5
aI1905
aF15.380322874226714
aI3
ag221
asg4
(g8
S'\x9fx\x02\x00'
p223
tp224
Rp225
(lp226
F100.5
aF65.5
aF194.5
aI3444
aF18.736487319456277
aI11
ag225
asg4
(g8
S'\xa0p\x03\x00'
p227
tp228
Rp229
(lp230
F181.5
aF51.5
aF183.5
aI1874
aF15.296438375619775
aI3
ag229
asg4
(g8
S'\xa3\xe8\x03\x00'
p231
tp232
Rp233
(lp234
F105.5
aF130.5
aF219.5
aI312
aF8.414958733670003
aI2
ag233
asg4
(g8
S'\xa5(\x01\x00'
p235
tp236
Rp237
(lp238
F117.5
aF196.5
aF73.5
aI4253
aF20.101675293841502
aI10
ag237
asg4
(g8
S'\xa9(\x01\x00'
p239
tp240
Rp241
(lp242
F97.5
aF108.5
aF85.5
aI5441
aF21.821940529063497
aI8
ag241
asg4
(g8
S'\xab\xb8\x02\x00'
p243
tp244
Rp245
(lp246
F201.5
aF152.5
aF78.5
aI1689
aF14.77555067603841
aI4
ag245
asg4
(g8
S'\xae\xc8\x04\x00'
p247
tp248
Rp249
(lp250
F144.5
aF24.5
aF65.5
aI48
aF4.509006607147306
aI1
ag249
asg4
(g8
S'\xb3`\x00\x00'
p251
tp252
Rp253
(lp254
F136.5
aF109.5
aF117.5
aI6550
aF23.213870599091745
aI10
ag253
asg4
(g8
S'\xb6\x10\x02\x00'
p255
tp256
Rp257
(lp258
F144.5
aF94.5
aF250.5
aI5729
aF22.20036253748891
aI7
ag257
asg4
(g8
S'\xb9\xa8\x00\x00'
p259
tp260
Rp261
(lp262
F174.5
aF139.5
aF78.5
aI1382
aF13.819843985461963
aI5
ag261
asg4
(g8
S'\xbd\xa8\x03\x00'
p263
tp264
Rp265
(lp266
F79.5
aF153.5
aF69.5
aI2295
aF16.365452673146244
aI9
ag265
asg4
(g8
S'!d\x04\x00'
p267
tp268
Rp269
(lp270
F94.5
aF107.5
aF198.5
aI351
aF8.751909766778155
aI6
ag269
asg4
(g8
S'\xc8p\x01\x00'
p271
tp272
Rp273
(lp274
F70.5
aF122.5
aF178.5
aI261
aF7.928918643143567
aI3
ag273
asg4
(g8
S'\xcb\x98\x04\x00'
p275
tp276
Rp277
(lp278
F143.5
aF30.5
aF233.5
aI2062
aF15.791741012703515
aI7
ag277
asg4
(g8
S'\xcf\xb8\x01\x00'
p279
tp280
Rp281
(lp282
F147.5
aF75.5
aF131.5
aI2801
aF17.48926247127107
aI6
ag281
asg4
(g8
S'\xd0\xa8\x03\x00'
p283
tp284
Rp285
(lp286
F77.5
aF106.5
aF136.5
aI1260
aF13.400591678688436
aI6
ag285
asg4
(g8
S'x\xa9\x04\x00'
p287
tp288
Rp289
(lp290
F63.5
aF76.5
aF219.5
aI3416
aF18.68557270075526
aI6
ag289
asg4
(g8
S'\xd2\x80\x00\x00'
p291
tp292
Rp293
(lp294
F94.5
aF92.5
aF183.5
aI1051
aF12.614441621899479
aI4
ag293
asg4
(g8
S'\xd5X\x03\x00'
p295
tp296
Rp297
(lp298
F175.5
aF81.5
aF177.5
aI4079
aF19.82371419308121
aI6
ag297
asg4
(g8
S'\xd7(\x02\x00'
p299
tp300
Rp301
(lp302
F132.5
aF152.5
aF49.5
aI60
aF4.857180126010562
aI3
ag301
asg4
(g8
S'\xd8\x18\x01\x00'
p303
tp304
Rp305
(lp306
F129.5
aF124.5
aF129.5
aI334
aF8.60827134593119
aI3
ag305
asg4
(g8
S'\xe1\xe0\x00\x00'
p307
tp308
Rp309
(lp310
F54.5
aF166.5
aF93.5
aI1939
aF15.47128532608706
aI7
ag309
asg4
(g8
S'\xed\xd2\x03\x00'
p311
tp312
Rp313
(lp314
F178.5
aF83.5
aF67.5
aI642
aF10.703162897552794
aI7
ag313
asg4
(g8
S'\xe5\xf0\x03\x00'
p315
tp316
Rp317
(lp318
F126.5
aF204.5
aF62.5
aI1862
aF15.263718621427502
aI5
ag317
asg4
(g8
S'\xe7\x10\x03\x00'
p319
tp320
Rp321
(lp322
F180.5
aF122.5
aF70.5
aI3572
aF18.965790224495674
aI6
ag321
asg4
(g8
S'\xebH\x00\x00'
p323
tp324
Rp325
(lp326
F193.5
aF109.5
aF55.5
aI7125
aF23.874195660144622
aI10
ag325
asg4
(g8
S'\xee\x98\x00\x00'
p327
tp328
Rp329
(lp330
F119.5
aF33.5
aF104.5
aI2403
aF16.618240870719337
aI3
ag329
asg4
(g8
S'\xef\xc8\x00\x00'
p331
tp332
Rp333
(lp334
F168.5
aF148.5
aF240.5
aI6909
aF23.630460775873658
aI4
ag333
asg4
(g8
S'\xf08\x03\x00'
p335
tp336
Rp337
(lp338
F124.5
aF117.5
aF49.5
aI2853
aF17.596827759549186
aI8
ag337
asg4
(g8
S'\xf1\xc0\x01\x00'
p339
tp340
Rp341
(lp342
F166.5
aF129.5
aF284.5
aI4718
aF20.809090776369302
aI5
ag341
asg4
(g8
S'\xf2h\x01\x00'
p343
tp344
Rp345
(lp346
F92.5
aF53.5
aF85.5
aI1828
aF15.17024249596294
aI9
ag345
asg4
(g8
S'\xf3\xb0\x01\x00'
p347
tp348
Rp349
(lp350
F147.5
aF64.5
aF51.5
aI2477
aF16.787104532119347
aI5
ag349
asg4
(g8
S'\xf4\x88\x01\x00'
p351
tp352
Rp353
(lp354
F140.5
aF203.5
aF84.5
aI2957
aF17.808099248009533
aI4
ag353
asg4
(g8
S'\xf6`\x03\x00'
p355
tp356
Rp357
(lp358
F43.5
aF121.5
aF90.5
aI3404
aF18.66366696824488
aI8
ag357
asg4
(g8
S'\xfa\xe0\x04\x00'
p359
tp360
Rp361
(lp362
F55.5
aF60.5
aF99.5
aI3810
aF19.377992543417854
aI5
ag361
asg4
(g8
S'\x7fM\x04\x00'
p363
tp364
Rp365
(lp366
F145.5
aF46.5
aF234.5
aI416
aF9.261860513676268
aI2
ag365
asg4
(g8
S'\x01\x99\x02\x00'
p367
tp368
Rp369
(lp370
F100.5
aF149.5
aF51.5
aI3827
aF19.406770944505837
aI7
ag369
asg4
(g8
S'\x02i\x04\x00'
p371
tp372
Rp373
(lp374
F99.5
aF37.5
aF215.5
aI3877
aF19.49092242175181
aI6
ag373
asg4
(g8
S'\xd6\xae\x04\x00'
p375
tp376
Rp377
(lp378
F164.5
aF90.5
aF245.5
aI1198
aF13.177086552814492
aI2
ag377
asg4
(g8
S'\x08q\x02\x00'
p379
tp380
Rp381
(lp382
F178.5
aF105.5
aF140.5
aI251
aF7.826333789007013
aI4
ag381
asg4
(g8
S'\xa9&\x04\x00'
p383
tp384
Rp385
(lp386
F107.5
aF117.5
aF283.5
aI4511
aF20.50019859371401
aI4
ag385
asg4
(g8
S'\x0c\xb1\x01\x00'
p387
tp388
Rp389
(lp390
F138.5
aF69.5
aF253.5
aI2201
aF16.138895396723452
aI5
ag389
asg4
(g8
S'\r\xb9\x00\x00'
p391
tp392
Rp393
(lp394
F176.5
aF142.5
aF67.5
aI860
aF11.798676028578974
aI5
ag393
asg4
(g8
S'\xd8"\x04\x00'
p395
tp396
Rp397
(lp398
F84.5
aF28.5
aF129.5
aI3857
aF19.457349153284916
aI4
ag397
asg4
(g8
S'\x14\xd9\x04\x00'
p399
tp400
Rp401
(lp402
F71.5
aF43.5
aF141.5
aI302
aF8.324077344634837
aI4
ag401
asg4
(g8
S'\x15\xc1\x02\x00'
p403
tp404
Rp405
(lp406
F115.5
aF32.5
aF59.5
aI4497
aF20.47896899199708
aI4
ag405
asg4
(g8
S'\x17\xd1\x04\x00'
p407
tp408
Rp409
(lp410
F159.5
aF166.5
aF187.5
aI3384
aF18.627042723881033
aI4
ag409
asg4
(g8
S'\x1a9\x00\x00'
p411
tp412
Rp413
(lp414
F52.5
aF147.5
aF164.5
aI2358
aF16.51385218104163
aI9
ag413
asg4
(g8
S'\x1f\xa1\x04\x00'
p415
tp416
Rp417
(lp418
F64.5
aF125.5
aF189.5
aI2346
aF16.485791205686898
aI5
ag417
asg4
(g8
S'!\t\x00\x00'
p419
tp420
Rp421
(lp422
F106.5
aF83.5
aF73.5
aI3017
aF17.927740721412913
aI11
ag421
asg4
(g8
S'"\xe1\x01\x00'
p423
tp424
Rp425
(lp426
F76.5
aF144.5
aF110.5
aI2990
aF17.874100219118475
aI10
ag425
asg4
(g8
S"'\xe1\x03\x00"
p427
tp428
Rp429
(lp430
F107.5
aF116.5
aF112.5
aI4115
aF19.881862795586468
aI9
ag429
asg4
(g8
S'\x87M\x03\x00'
p431
tp432
Rp433
(lp434
F135.5
aF41.5
aF307.5
aI6495
aF23.14871267113611
aI7
ag433
asg4
(g8
S'\xdeB\x04\x00'
p435
tp436
Rp437
(lp438
F174.5
aF155.5
aF116.5
aI1829
aF15.173008264938709
aI6
ag437
asg4
(g8
S'\x89\xe9\x01\x00'
p439
tp440
Rp441
(lp442
F75.5
aF38.5
aF117.5
aI4329
aF20.220706297229675
aI10
ag441
asg4
(g8
S':\x89\x02\x00'
p443
tp444
Rp445
(lp446
F50.5
aF157.5
aF123.5
aI4083
aF19.830192002281116
aI6
ag445
asg4
(g8
S'\xdf\xa2\x04\x00'
p447
tp448
Rp449
(lp450
F113.5
aF141.5
aF38.5
aI3027
aF17.94752634691865
aI7
ag449
asg4
(g8
S'\x8a\xa5\x04\x00'
p451
tp452
Rp453
(lp454
F55.5
aF178.5
aF157.5
aI6762
aF23.46166600826215
aI10
ag453
asg4
(g8
S'E\x01\x03\x00'
p455
tp456
Rp457
(lp458
F102.5
aF36.5
aF257.5
aI1625
aF14.586516277963591
aI1
ag457
asg4
(g8
S'K\t\x01\x00'
p459
tp460
Rp461
(lp462
F139.5
aF147.5
aF217.5
aI4235
aF20.07327637404863
aI8
ag461
asg4
(g8
S'\xe3\x9e\x02\x00'
p463
tp464
Rp465
(lp466
F68.5
aF165.5
aF157.5
aI1870
aF15.285547351378375
aI6
ag465
asg4
(g8
S'Tq\x00\x00'
p467
tp468
Rp469
(lp470
F101.5
aF58.5
aF248.5
aI1283
aF13.481638510634616
aI3
ag469
asg4
(g8
S'V)\x01\x00'
p471
tp472
Rp473
(lp474
F88.5
aF50.5
aF210.5
aI6225
aF22.82339489035784
aI9
ag473
asg4
(g8
S'9\xd8\x02\x00'
p475
tp476
Rp477
(lp478
F86.5
aF195.5
aF137.5
aI5974
aF22.512420836047202
aI3
ag477
asg4
(g8
S'X\x81\x02\x00'
p479
tp480
Rp481
(lp482
F86.5
aF80.5
aF134.5
aI4429
aF20.37522215609174
aI8
ag481
asg4
(g8
S'Yi\x01\x00'
p483
tp484
Rp485
(lp486
F52.5
aF90.5
aF223.5
aI2416
aF16.648154689269674
aI3
ag485
asg4
(g8
S'\x8f1\x01\x00'
p487
tp488
Rp489
(lp490
F64.5
aF39.5
aF73.5
aI6754
aF23.452409999407955
aI9
ag489
asg4
(g8
S']9\x04\x00'
p491
tp492
Rp493
(lp494
F183.5
aF81.5
aF135.5
aI3620
aF19.050365658609472
aI7
ag493
asg4
(g8
S'`\xa1\x04\x00'
p495
tp496
Rp497
(lp498
F129.5
aF42.5
aF146.5
aI6120
aF22.694342241555365
aI6
ag497
asg4
(g8
S'e!\x03\x00'
p499
tp500
Rp501
(lp502
F164.5
aF102.5
aF166.5
aI1589
aF14.477995088592802
aI8
ag501
asg4
(g8
S'ha\x03\x00'
p503
tp504
Rp505
(lp506
F160.5
aF116.5
aF297.5
aI3361
aF18.584746005844263
aI2
ag505
asg4
(g8
S'r\xf1\x04\x00'
p507
tp508
Rp509
(lp510
F87.5
aF182.5
aF198.5
aI7954
aF24.766367982298327
aI7
ag509
asg4
(g8
S's9\x02\x00'
p511
tp512
Rp513
(lp514
F101.5
aF149.5
aF122.5
aI1984
aF15.590056238503024
aI7
ag513
asg4
(g8
S'x1\x04\x00'
p515
tp516
Rp517
(lp518
F160.5
aF126.5
aF50.5
aI1704
aF14.819162353623963
aI3
ag517
asg4
(g8
S'{i\x04\x00'
p519
tp520
Rp521
(lp522
F169.5
aF49.5
aF47.5
aI2353
aF16.502171704530927
aI7
ag521
asg4
(g8
S'\x82\xa9\x02\x00'
p523
tp524
Rp525
(lp526
F83.5
aF126.5
aF120.5
aI4160
aF19.954073584900673
aI7
ag525
asg4
(g8
S'\xeb2\x03\x00'
p527
tp528
Rp529
(lp530
F104.5
aF137.5
aF229.5
aI2675
aF17.222983598820093
aI6
ag529
asg4
(g8
S'\xae\x17\x03\x00'
p531
tp532
Rp533
(lp534
F145.5
aF170.5
aF131.5
aI1945
aF15.487226898751889
aI7
ag533
asg4
(g8
S'\x86i\x01\x00'
p535
tp536
Rp537
(lp538
F144.5
aF46.5
aF60.5
aI1109
aF12.842344267015104
aI5
ag537
asg4
(g8
S'\x89\t\x02\x00'
p539
tp540
Rp541
(lp542
F180.5
aF96.5
aF149.5
aI4902
aF21.07616362363842
aI8
ag541
asg4
(g8
S'\x8fa\x02\x00'
p543
tp544
Rp545
(lp546
F86.5
aF118.5
aF62.5
aI4409
aF20.34450646596031
aI6
ag545
asg4
(g8
S'\x91I\x02\x00'
p547
tp548
Rp549
(lp550
F98.5
aF62.5
aF281.5
aI5953
aF22.486011067232216
aI6
ag549
asg4
(g8
S'\x93\xf9\x03\x00'
p551
tp552
Rp553
(lp554
F49.5
aF104.5
aF66.5
aI2319
aF16.422302292249267
aI7
ag553
asg4
(g8
S'\x97\x19\x00\x00'
p555
tp556
Rp557
(lp558
F18.5
aF111.5
aF54.5
aI179
aF6.992269136954584
aI2
ag557
asg4
(g8
S'\x9c\xd9\x02\x00'
p559
tp560
Rp561
(lp562
F86.5
aF102.5
aF280.5
aI6172
aF22.758436965815275
aI6
ag561
asg4
(g8
S'E\xe8\x03\x00'
p563
tp564
Rp565
(lp566
F140.5
aF183.5
aF68.5
aI350
aF8.74359045590235
aI5
ag565
asg4
(g8
S'\xa09\x00\x00'
p567
tp568
Rp569
(lp570
F131.5
aF183.5
aF55.5
aI1564
aF14.401665143009549
aI5
ag569
asg4
(g8
S'\xa1y\x03\x00'
p571
tp572
Rp573
(lp574
F123.5
aF182.5
aF149.5
aI4321
aF20.208242648923722
aI7
ag573
asg4
(g8
S'\xa3\x99\x04\x00'
p575
tp576
Rp577
(lp578
F184.5
aF140.5
aF105.5
aI3070
aF18.03211151063933
aI5
ag577
asg4
(g8
S'\xa5!\x01\x00'
p579
tp580
Rp581
(lp582
F83.5
aF125.5
aF81.5
aI4330
aF20.222263173298135
aI8
ag581
asg4
(g8
S'\xa7Q\x04\x00'
p583
tp584
Rp585
(lp586
F85.5
aF109.5
aF254.5
aI1837
aF15.195098208071611
aI3
ag585
asg4
(g8
S'\xab!\x02\x00'
p587
tp588
Rp589
(lp590
F127.5
aF191.5
aF86.5
aI2947
aF17.78800206442203
aI7
ag589
asg4
(g8
S'\xad\x19\x03\x00'
p591
tp592
Rp593
(lp594
F63.5
aF50.5
aF131.5
aI1883
aF15.3208866405189
aI5
ag593
asg4
(g8
S'H\x00\x03\x00'
p595
tp596
Rp597
(lp598
F67.5
aF68.5
aF193.5
aI3425
aF18.701968356462302
aI4
ag597
asg4
(g8
S'\xb2\x01\x01\x00'
p599
tp600
Rp601
(lp602
F149.5
aF148.5
aF88.5
aI2117
aF15.93091590971953
aI7
ag601
asg4
(g8
S'\xb6Y\x00\x00'
p603
tp604
Rp605
(lp606
F84.5
aF202.5
aF112.5
aI1647
aF14.652047759769228
aI3
ag605
asg4
(g8
S'\xb7A\x02\x00'
p607
tp608
Rp609
(lp610
F84.5
aF133.5
aF273.5
aI5149
aF21.424371470945257
aI3
ag609
asg4
(g8
S'\xb99\x00\x00'
p611
tp612
Rp613
(lp614
F150.5
aF29.5
aF158.5
aI1789
aF15.061581381877135
aI2
ag613
asg4
(g8
S'\xca\x91\x01\x00'
p615
tp616
Rp617
(lp618
F132.5
aF80.5
aF95.5
aI4314
aF20.19732433107262
aI7
ag617
asg4
(g8
S'\xcc\xc1\x03\x00'
p619
tp620
Rp621
(lp622
F124.5
aF98.5
aF202.5
aI9350
aF26.137918302644714
aI7
ag621
asg4
(g8
S'\xf8\xee\x04\x00'
p623
tp624
Rp625
(lp626
F120.5
aF148.5
aF87.5
aI3171
aF18.22772802636771
aI6
ag625
asg4
(g8
S'\xd2\xc9\x00\x00'
p627
tp628
Rp629
(lp630
F178.5
aF110.5
aF231.5
aI8850
aF25.663440756123308
aI8
ag629
asg4
(g8
S'\xd6\x91\x00\x00'
p631
tp632
Rp633
(lp634
F109.5
aF174.5
aF236.5
aI352
aF8.76021329146161
aI5
ag633
asg4
(g8
S'\xd9\x11\x02\x00'
p635
tp636
Rp637
(lp638
F107.5
aF93.5
aF46.5
aI2744
aF17.369813745183198
aI8
ag637
asg4
(g8
S'\xa5\xb1\x03\x00'
p639
tp640
Rp641
(lp642
F166.5
aF167.5
aF76.5
aI7172
aF23.926575960443486
aI7
ag641
asg4
(g8
S'\xe0\xa1\x00\x00'
p643
tp644
Rp645
(lp646
F47.5
aF44.5
aF127.5
aI858
aF11.7895226687927
aI1
ag645
asg4
(g8
S'\xe2\x99\x01\x00'
p647
tp648
Rp649
(lp650
F182.5
aF71.5
aF33.5
aI4031
aF19.745648056540876
aI5
ag649
asg4
(g8
S'\xa6]\x03\x00'
p651
tp652
Rp653
(lp654
F174.5
aF84.5
aF28.5
aI1806
aF15.109138696635627
aI4
ag653
asg4
(g8
S'\xe8\xf1\x01\x00'
p655
tp656
Rp657
(lp658
F97.5
aF131.5
aF131.5
aI2629
aF17.12368859296214
aI10
ag657
asg4
(g8
S'\xea\xb1\x03\x00'
p659
tp660
Rp661
(lp662
F147.5
aF74.5
aF43.5
aI53
aF4.66042742317893
aI1
ag661
asg4
(g8
S'\xedy\x00\x00'
p663
tp664
Rp665
(lp666
F147.5
aF69.5
aF33.5
aI7098
aF23.844000608117828
aI5
ag665
asg4
(g8
S'\xf7\xf1\x00\x00'
p667
tp668
Rp669
(lp670
F104.5
aF57.5
aF92.5
aI89
aF5.539413623573113
aI6
ag669
asg4
(g8
S'\xfb\xa1\x01\x00'
p671
tp672
Rp673
(lp674
F26.5
aF132.5
aF116.5
aI2186
aF16.102149150735272
aI6
ag673
asg4
(g8
S'\xfc\xf9\x00\x00'
p675
tp676
Rp677
(lp678
F136.5
aF32.5
aF200.5
aI2955
aF17.804083440172843
aI5
ag677
asg4
(g8
S'\xaa\x1d\x01\x00'
p679
tp680
Rp681
(lp682
F156.5
aF190.5
aF76.5
aI2107
aF15.905792203135972
aI5
ag681
asg4
(g8
S'\x00\xba\x02\x00'
p683
tp684
Rp685
(lp686
F123.5
aF203.5
aF147.5
aI4182
aF19.98918720866707
aI4
ag685
asg4
(g8
S'}\x8b\x03\x00'
p687
tp688
Rp689
(lp690
F53.5
aF125.5
aF31.5
aI4706
aF20.791433499518075
aI5
ag689
asg4
(g8
S'\n\x9a\x02\x00'
p691
tp692
Rp693
(lp694
F119.5
aF139.5
aF137.5
aI2155
aF16.025670807165692
aI2
ag693
asg4
(g8
S'\x10z\x00\x00'
p695
tp696
Rp697
(lp698
F99.5
aF148.5
aF216.5
aI2088
aF15.857837286287134
aI4
ag697
asg4
(g8
S'\x97\xcb\x03\x00'
p699
tp700
Rp701
(lp702
F139.5
aF106.5
aF98.5
aI5724
aF22.193902182527033
aI10
ag701
asg4
(g8
S'\x16j\x01\x00'
p703
tp704
Rp705
(lp706
F150.5
aF153.5
aF43.5
aI3944
aF19.602558622882192
aI4
ag705
asg4
(g8
S'\x18\x9a\x02\x00'
p707
tp708
Rp709
(lp710
F35.5
aF136.5
aF210.5
aI3682
aF19.158509585882392
aI6
ag709
asg4
(g8
S'\x1aj\x00\x00'
p711
tp712
Rp713
(lp714
F74.5
aF146.5
aF217.5
aI2668
aF17.207947312155234
aI4
ag713
asg4
(g8
S'\x1c\xaa\x00\x00'
p715
tp716
Rp717
(lp718
F51.5
aF104.5
aF158.5
aI2722
aF17.323268345162774
aI4
ag717
asg4
(g8
S'\xb0M\x03\x00'
p719
tp720
Rp721
(lp722
F97.5
aF94.5
aF99.5
aI736
aF11.201935404766612
aI7
ag721
asg4
(g8
S'#b\x04\x00'
p723
tp724
Rp725
(lp726
F74.5
aF165.5
aF54.5
aI2232
aF16.21431189108978
aI4
ag725
asg4
(g8
S'%Z\x04\x00'
p727
tp728
Rp729
(lp730
F28.5
aF87.5
aF156.5
aI6013
aF22.56130381412977
aI4
ag729
asg4
(g8
S')\xea\x01\x00'
p731
tp732
Rp733
(lp734
F147.5
aF125.5
aF134.5
aI2689
aF17.25297765995786
aI5
ag733
asg4
(g8
S']\x84\x04\x00'
p735
tp736
Rp737
(lp738
F126.5
aF19.5
aF172.5
aI3088
aF18.067284769166896
aI4
ag737
asg4
(g8
S'\n \x04\x00'
p739
tp740
Rp741
(lp742
F172.5
aF156.5
aF44.5
aI4574
aF20.595192044445994
aI5
ag741
asg4
(g8
S'4\xea\x01\x00'
p743
tp744
Rp745
(lp746
F143.5
aF22.5
aF187.5
aI5403
aF21.77102024943707
aI3
ag745
asg4
(g8
S'6B\x02\x00'
p747
tp748
Rp749
(lp750
F88.5
aF167.5
aF89.5
aI2337
aF16.46468261511625
aI4
ag749
asg4
(g8
S'\x12v\x04\x00'
p751
tp752
Rp753
(lp754
F134.5
aF130.5
aF229.5
aI2228
aF16.20462013032811
aI5
ag753
asg4
(g8
S';z\x02\x00'
p755
tp756
Rp757
(lp758
F105.5
aF55.5
aF104.5
aI3753
aF19.2808709291884
aI9
ag757
asg4
(g8
S'?\xd2\x00\x00'
p759
tp760
Rp761
(lp762
F86.5
aF69.5
aF100.5
aI1679
aF14.746332583824458
aI6
ag761
asg4
(g8
S'@\xa2\x04\x00'
p763
tp764
Rp765
(lp766
F159.5
aF86.5
aF71.5
aI3028
aF17.94950251147403
aI7
ag765
asg4
(g8
S'Br\x03\x00'
p767
tp768
Rp769
(lp770
F118.5
aF18.5
aF162.5
aI1842
aF15.20887187243688
aI4
ag769
asg4
(g8
S'E*\x04\x00'
p771
tp772
Rp773
(lp774
F180.5
aF160.5
aF61.5
aI5065
aF21.307227477528627
aI7
ag773
asg4
(g8
S'G\x1a\x02\x00'
p775
tp776
Rp777
(lp778
F163.5
aF25.5
aF276.5
aI1436
aF13.997547154223293
aI4
ag777
asg4
(g8
S'H*\x01\x00'
p779
tp780
Rp781
(lp782
F104.5
aF170.5
aF153.5
aI1889
aF15.337142235354593
aI4
ag781
asg4
(g8
S'NB\x01\x00'
p783
tp784
Rp785
(lp786
F143.5
aF48.5
aF173.5
aI2805
aF17.497583758346185
aI5
ag785
asg4
(g8
S'PB\x02\x00'
p787
tp788
Rp789
(lp790
F100.5
aF50.5
aF192.5
aI309
aF8.387900801742607
aI3
ag789
asg4
(g8
S'S\n\x04\x00'
p791
tp792
Rp793
(lp794
F35.5
aF85.5
aF171.5
aI2420
aF16.65733734677929
aI6
ag793
asg4
(g8
S'\x0e\x83\x03\x00'
p795
tp796
Rp797
(lp798
F97.5
aF22.5
aF141.5
aI3036
aF17.9652961865923
aI5
ag797
asg4
(g8
S'V\xda\x04\x00'
p799
tp800
Rp801
(lp802
F184.5
aF53.5
aF150.5
aI4205
aF20.025765483087696
aI3
ag801
asg4
(g8
S'X\xba\x01\x00'
p803
tp804
Rp805
(lp806
F109.5
aF43.5
aF138.5
aI1180
aF13.110757812726954
aI3
ag805
asg4
(g8
S'Y\x1a\x01\x00'
p807
tp808
Rp809
(lp810
F186.5
aF170.5
aF91.5
aI3217
aF18.31544519376496
aI5
ag809
asg4
(g8
S'Z\xaa\x01\x00'
p811
tp812
Rp813
(lp814
F58.5
aF40.5
aF111.5
aI1895
aF15.353363444944016
aI6
ag813
asg4
(g8
S'\\\xba\x01\x00'
p815
tp816
Rp817
(lp818
F84.5
aF47.5
aF155.5
aI5770
aF22.25319619762056
aI6
ag817
asg4
(g8
S'c\n\x04\x00'
p819
tp820
Rp821
(lp822
F124.5
aF17.5
aF282.5
aI8990
aF25.798058494584694
aI4
ag821
asg4
(g8
S'd\xba\x00\x00'
p823
tp824
Rp825
(lp826
F121.5
aF151.5
aF267.5
aI5705
aF22.169318466175177
aI7
ag825
asg4
(g8
S'e\n\x00\x00'
p827
tp828
Rp829
(lp830
F137.5
aF134.5
aF61.5
aI5363
aF21.717161360980523
aI6
ag829
asg4
(g8
S'jb\x01\x00'
p831
tp832
Rp833
(lp834
F85.5
aF174.5
aF37.5
aI1934
aF15.457975542051544
aI3
ag833
asg4
(g8
S'l:\x01\x00'
p835
tp836
Rp837
(lp838
F160.5
aF79.5
aF157.5
aI6977
aF23.707733330289365
aI8
ag837
asg4
(g8
S'\x127\x00\x00'
p839
tp840
Rp841
(lp842
F178.5
aF93.5
aF106.5
aI1187
aF13.13663194375224
aI3
ag841
asg4
(g8
S'oB\x03\x00'
p843
tp844
Rp845
(lp846
F143.5
aF65.5
aF228.5
aI3037
aF17.967268444395675
aI3
ag845
asg4
(g8
S'r\x12\x00\x00'
p847
tp848
Rp849
(lp850
F77.5
aF82.5
aF183.5
aI3026
aF17.945549747084723
aI7
ag849
asg4
(g8
S't\xaa\x02\x00'
p851
tp852
Rp853
(lp854
F75.5
aF66.5
aF227.5
aI4857
aF21.011472720626514
aI4
ag853
asg4
(g8
S'v\xfa\x03\x00'
p855
tp856
Rp857
(lp858
F77.5
aF103.5
aF76.5
aI3321
aF18.51072452642445
aI10
ag857
asg4
(g8
S'xR\x03\x00'
p859
tp860
Rp861
(lp862
F165.5
aF140.5
aF61.5
aI43
aF4.34666941315382
aI1
ag861
asg4
(g8
S'yb\x04\x00'
p863
tp864
Rp865
(lp866
F62.5
aF43.5
aF93.5
aI2545
aF16.939336217363582
aI6
ag865
asg4
(g8
S'{\x9a\x03\x00'
p867
tp868
Rp869
(lp870
F166.5
aF106.5
aF74.5
aI296
aF8.2685818458171
aI2
ag869
asg4
(g8
S'|"\x03\x00'
p871
tp872
Rp873
(lp874
F152.5
aF112.5
aF80.5
aI10210
aF26.91590829338893
aI13
ag873
asg4
(g8
S'~\x02\x02\x00'
p875
tp876
Rp877
(lp878
F135.5
aF150.5
aF126.5
aI3359
aF18.581058921925294
aI8
ag877
asg4
(g8
S'\x7fR\x04\x00'
p879
tp880
Rp881
(lp882
F133.5
aF173.5
aF45.5
aI2295
aF16.365452673146244
aI4
ag881
asg4
(g8
S'\xb4^\x03\x00'
p883
tp884
Rp885
(lp886
F138.5
aF166.5
aF81.5
aI1475
aF14.123135722172746
aI5
ag885
asg4
(g8
S'\x16\xff\x04\x00'
p887
tp888
Rp889
(lp890
F178.5
aF121.5
aF177.5
aI9143
aF25.943587619315842
aI10
ag889
asg4
(g8
S'\x8b"\x03\x00'
p891
tp892
Rp893
(lp894
F59.5
aF96.5
aF193.5
aI2980
aF17.854151429977552
aI6
ag893
asg4
(g8
S'\x8d\xea\x01\x00'
p895
tp896
Rp897
(lp898
F48.5
aF143.5
aF220.5
aI6875
aF23.591634259004103
aI4
ag897
asg4
(g8
S'\x8f\xba\x00\x00'
p899
tp900
Rp901
(lp902
F188.5
aF108.5
aF94.5
aI6982
aF23.71339528439513
aI7
ag901
asg4
(g8
S'\x90"\x00\x00'
p903
tp904
Rp905
(lp906
F156.5
aF137.5
aF207.5
aI2070
aF15.812137213625054
aI6
ag905
asg4
(g8
S'\x92\xa2\x01\x00'
p907
tp908
Rp909
(lp910
F178.5
aF110.5
aF32.5
aI3868
aF19.475828774190852
aI5
ag909
asg4
(g8
S'\x94\x8a\x02\x00'
p911
tp912
Rp913
(lp914
F106.5
aF199.5
aF49.5
aI2792
aF17.47051056718001
aI4
ag913
asg4
(g8
S'\x95\x02\x04\x00'
p915
tp916
Rp917
(lp918
F91.5
aF56.5
aF300.5
aI2398
aF16.60670682976331
aI2
ag917
asg4
(g8
S'\x96Z\x02\x00'
p919
tp920
Rp921
(lp922
F141.5
aF175.5
aF142.5
aI4685
aF20.760460898970347
aI7
ag921
asg4
(g8
S'\x972\x00\x00'
p923
tp924
Rp925
(lp926
F66.5
aF155.5
aF98.5
aI962
aF12.247820604768856
aI6
ag925
asg4
(g8
S'\x99\xca\x04\x00'
p927
tp928
Rp929
(lp930
F68.5
aF68.5
aF71.5
aI3348
aF18.560753754932318
aI4
ag929
asg4
(g8
S'o\xa0\x01\x00'
p931
tp932
Rp933
(lp934
F169.5
aF68.5
aF144.5
aI1529
aF14.293424358450565
aI7
ag933
asg4
(g8
S'\x1a7\x03\x00'
p935
tp936
Rp937
(lp938
F125.5
aF93.5
aF166.5
aI4825
aF20.965226809566825
aI16
ag937
asg4
(g8
S'\x9f*\x03\x00'
p939
tp940
Rp941
(lp942
F117.5
aF61.5
aF230.5
aI4348
aF20.250246045489007
aI4
ag941
asg4
(g8
S'\xa7\x8a\x03\x00'
p943
tp944
Rp945
(lp946
F98.5
aF73.5
aF91.5
aI1567
aF14.410867487457997
aI10
ag945
asg4
(g8
S'\xa92\x01\x00'
p947
tp948
Rp949
(lp950
F113.5
aF123.5
aF44.5
aI1254
aF13.379287045497476
aI6
ag949
asg4
(g8
S'\xab\xba\x03\x00'
p951
tp952
Rp953
(lp954
F101.5
aF104.5
aF256.5
aI1005
aF12.427653799183641
aI3
ag953
asg4
(g8
S'\xb0z\x00\x00'
p955
tp956
Rp957
(lp958
F117.5
aF129.5
aF221.5
aI4512
aF20.501713312102392
aI8
ag957
asg4
(g8
S'\xb1\xda\x00\x00'
p959
tp960
Rp961
(lp962
F25.5
aF145.5
aF61.5
aI603
aF10.481889167292868
aI2
ag961
asg4
(g8
S'\xb2\xc2\x04\x00'
p963
tp964
Rp965
(lp966
F97.5
aF168.5
aF29.5
aI2757
aF17.3972010044477
aI4
ag965
asg4
(g8
S'\xb3*\x00\x00'
p967
tp968
Rp969
(lp970
F206.5
aF124.5
aF109.5
aI6117
aF22.690633409614577
aI5
ag969
asg4
(g8
S'\xb4j\x00\x00'
p971
tp972
Rp973
(lp974
F85.5
aF152.5
aF114.5
aI1452
aF14.049342435224425
aI7
ag973
asg4
(g8
S'\x1e\x0f\x03\x00'
p975
tp976
Rp977
(lp978
F54.5
aF49.5
aF141.5
aI1928
aF15.441973485538817
aI6
ag977
asg4
(g8
S'\xb6\xea\x02\x00'
p979
tp980
Rp981
(lp982
F151.5
aF159.5
aF146.5
aI5461
aF21.84864549425084
aI7
ag981
asg4
(g8
S'\xb7j\x03\x00'
p983
tp984
Rp985
(lp986
F146.5
aF81.5
aF277.5
aI2139
aF15.985910877496885
aI4
ag985
asg4
(g8
S'\xb8\xaa\x02\x00'
p987
tp988
Rp989
(lp990
F121.5
aF154.5
aF234.5
aI8685
aF25.502948867759258
aI8
ag989
asg4
(g8
S'\xba\x02\x00\x00'
p991
tp992
Rp993
(lp994
F161.5
aF81.5
aF112.5
aI10399
aF27.080976395186163
aI11
ag993
asg4
(g8
S'YI\x03\x00'
p995
tp996
Rp997
(lp998
F132.5
aF34.5
aF87.5
aI7864
aF24.672602440544363
aI8
ag997
asg4
(g8
S'\xc5\xe2\x02\x00'
p999
tp1000
Rp1001
(lp1002
F85.5
aF178.5
aF122.5
aI2741
aF17.363481329840685
aI5
ag1001
asg4
(g8
S'\xc6\xca\x01\x00'
p1003
tp1004
Rp1005
(lp1006
F63.5
aF117.5
aF238.5
aI5768
aF22.250624762862564
aI6
ag1005
asg4
(g8
S'\xcc-\x00\x00'
p1007
tp1008
Rp1009
(lp1010
F116.5
aF130.5
aF87.5
aI3594
aF19.00464741870023
aI7
ag1009
asg4
(g8
S'\xcf\x1a\x03\x00'
p1011
tp1012
Rp1013
(lp1014
F107.5
aF43.5
aF263.5
aI1638
aF14.625310386928435
aI4
ag1013
asg4
(g8
S'\xd0"\x03\x00'
p1015
tp1016
Rp1017
(lp1018
F78.5
aF113.5
aF32.5
aI7484
aF24.26861836082535
aI7
ag1017
asg4
(g8
S'\xd1R\x03\x00'
p1019
tp1020
Rp1021
(lp1022
F171.5
aF54.5
aF110.5
aI153
aF6.635865927138142
aI4
ag1021
asg4
(g8
S'\xd2j\x01\x00'
p1023
tp1024
Rp1025
(lp1026
F34.5
aF140.5
aF164.5
aI1690
aF14.778466135994904
aI6
ag1025
asg4
(g8
S'\xd5*\x02\x00'
p1027
tp1028
Rp1029
(lp1030
F145.5
aF129.5
aF175.5
aI1886
aF15.329018747481404
aI3
ag1029
asg4
(g8
S'\xd8\x12\x03\x00'
p1031
tp1032
Rp1033
(lp1034
F102.5
aF137.5
aF305.5
aI5244
aF21.555330538867
aI4
ag1033
asg4
(g8
S'\xdb\xa2\x02\x00'
p1035
tp1036
Rp1037
(lp1038
F111.5
aF68.5
aF126.5
aI2408
aF16.629758923249806
aI3
ag1037
asg4
(g8
S'\xdcJ\x03\x00'
p1039
tp1040
Rp1041
(lp1042
F143.5
aF15.5
aF249.5
aI2063
aF15.79429341957077
aI4
ag1041
asg4
(g8
S'\xde*\x01\x00'
p1043
tp1044
Rp1045
(lp1046
F152.5
aF55.5
aF136.5
aI2518
aF16.87921977086387
aI5
ag1045
asg4
(g8
S'\xdf\x12\x04\x00'
p1047
tp1048
Rp1049
(lp1050
F103.5
aF71.5
aF240.5
aI2664
aF17.1993433370648
aI7
ag1049
asg4
(g8
S'\xe3\xb2\x00\x00'
p1051
tp1052
Rp1053
(lp1054
F65.5
aF173.5
aF113.5
aI2385
aF16.57664309756701
aI7
ag1053
asg4
(g8
S'\xe6r\x03\x00'
p1055
tp1056
Rp1057
(lp1058
F149.5
aF119.5
aF110.5
aI4570
aF20.589186739529243
aI5
ag1057
asg4
(g8
S"'o\x00\x00"
p1059
tp1060
Rp1061
(lp1062
F98.5
aF148.5
aF78.5
aI2151
aF16.015749324482915
aI6
ag1061
asg4
(g8
S'\xed2\x00\x00'
p1063
tp1064
Rp1065
(lp1066
F113.5
aF45.5
aF126.5
aI6388
aF23.020889224774418
aI7
ag1065
asg4
(g8
S'\xf0"\x02\x00'
p1067
tp1068
Rp1069
(lp1070
F79.5
aF139.5
aF70.5
aI13
aF2.9173032555927185
aI1
ag1069
asg4
(g8
S'\xf9\xa2\x02\x00'
p1071
tp1072
Rp1073
(lp1074
F138.5
aF137.5
aF276.5
aI1336
aF13.664778990158878
aI8
ag1073
asg4
(g8
S'\xfa\xd2\x04\x00'
p1075
tp1076
Rp1077
(lp1078
F45.5
aF75.5
aF96.5
aI2011
aF15.660458852360877
aI6
ag1077
asg4
(g8
S'\xfb\xa2\x00\x00'
p1079
tp1080
Rp1081
(lp1082
F139.5
aF156.5
aF55.5
aI1216
aF13.242754181611414
aI4
ag1081
asg4
(g8
S'4b\x04\x00'
p1083
tp1084
Rp1085
(lp1086
F45.5
aF70.5
aF160.5
aI2814
aF17.51627777230566
aI4
ag1085
asg4
(g8
S'\x07\x93\x03\x00'
p1087
tp1088
Rp1089
(lp1090
F133.5
aF92.5
aF105.5
aI85
aF5.455150891048749
aI2
ag1089
asg4
(g8
S'\x06\xca\x04\x00'
p1091
tp1092
Rp1093
(lp1094
F118.5
aF127.5
aF150.5
aI1316
aF13.596248354791072
aI2
ag1093
asg4
(g8
S'\x0b\x93\x04\x00'
p1095
tp1096
Rp1097
(lp1098
F180.5
aF176.5
aF115.5
aI1604
aF14.523409423315991
aI4
ag1097
asg4
(g8
S'\x0e\xd3\x02\x00'
p1099
tp1100
Rp1101
(lp1102
F85.5
aF187.5
aF241.5
aI10650
aF27.29713044710824
aI2
ag1101
asg4
(g8
S'\x13\xb3\x04\x00'
p1103
tp1104
Rp1105
(lp1106
F189.5
aF140.5
aF48.5
aI2129
aF15.960960141021522
aI4
ag1105
asg4
(g8
S'\x16#\x01\x00'
p1107
tp1108
Rp1109
(lp1110
F108.5
aF36.5
aF279.5
aI3049
aF17.990901840193146
aI6
ag1109
asg4
(g8
S'\x1c\x0b\x01\x00'
p1111
tp1112
Rp1113
(lp1114
F125.5
aF54.5
aF184.5
aI141
aF6.457635040206936
aI1
ag1113
asg4
(g8
S'\xa3\xbf\x03\x00'
p1115
tp1116
Rp1117
(lp1118
F152.5
aF97.5
aF55.5
aI11358
aF27.88909450911963
aI12
ag1117
asg4
(g8
S'\x1es\x01\x00'
p1119
tp1120
Rp1121
(lp1122
F79.5
aF169.5
aF111.5
aI2379
aF16.5627306755065
aI5
ag1121
asg4
(g8
S'*\xc3\x01\x00'
p1123
tp1124
Rp1125
(lp1126
F84.5
aF187.5
aF83.5
aI8551
aF25.371107650481004
aI11
ag1125
asg4
(g8
S'6\x8b\x02\x00'
p1127
tp1128
Rp1129
(lp1130
F72.5
aF131.5
aF65.5
aI792
aF11.479126797516205
aI4
ag1129
asg4
(g8
S';{\x02\x00'
p1131
tp1132
Rp1133
(lp1134
F35.5
aF110.5
aF52.5
aI9485
aF26.263115138285237
aI5
ag1133
asg4
(g8
S'={\x02\x00'
p1135
tp1136
Rp1137
(lp1138
F110.5
aF105.5
aF64.5
aI3377
aF18.614190152124852
aI6
ag1137
asg4
(g8
S'\xe0Y\x04\x00'
p1139
tp1140
Rp1141
(lp1142
F134.5
aF47.5
aF205.5
aI6738
aF23.43387603140009
aI8
ag1141
asg4
(g8
S'C\x1b\x04\x00'
p1143
tp1144
Rp1145
(lp1146
F64.5
aF135.5
aF112.5
aI1868
aF15.280096014485473
aI6
ag1145
asg4
(g8
S'Gk\x03\x00'
p1147
tp1148
Rp1149
(lp1150
F82.5
aF88.5
aF126.5
aI264
aF7.959181984758356
aI4
ag1149
asg4
(g8
S'H#\x02\x00'
p1151
tp1152
Rp1153
(lp1154
F76.5
aF33.5
aF96.5
aI3255
aF18.387278617295483
aI5
ag1153
asg4
(g8
S'I{\x02\x00'
p1155
tp1156
Rp1157
(lp1158
F135.5
aF112.5
aF146.5
aI2327
aF16.441164967600596
aI5
ag1157
asg4
(g8
S'L;\x00\x00'
p1159
tp1160
Rp1161
(lp1162
F161.5
aF185.5
aF92.5
aI2124
aF15.948455466409484
aI5
ag1161
asg4
(g8
S'N\x83\x02\x00'
p1163
tp1164
Rp1165
(lp1166
F52.5
aF97.5
aF92.5
aI3411
aF18.676451556720437
aI5
ag1165
asg4
(g8
S'O\xab\x04\x00'
p1167
tp1168
Rp1169
(lp1170
F180.5
aF136.5
aF188.5
aI2113
aF15.920875941148992
aI2
ag1169
asg4
(g8
S'Q\xfb\x01\x00'
p1171
tp1172
Rp1173
(lp1174
F19.5
aF130.5
aF203.5
aI1370
aF13.77972810235658
aI4
ag1173
asg4
(g8
S'V\x1b\x03\x00'
p1175
tp1176
Rp1177
(lp1178
F120.5
aF99.5
aF120.5
aI3591
aF18.999358064845442
aI5
ag1177
asg4
(g8
S';\x13\x04\x00'
p1179
tp1180
Rp1181
(lp1182
F90.5
aF147.5
aF258.5
aI9450
aF26.230771367707046
aI5
ag1181
asg4
(g8
S'e\x1b\x03\x00'
p1183
tp1184
Rp1185
(lp1186
F127.5
aF70.5
aF192.5
aI3174
aF18.23347447316277
aI6
ag1185
asg4
(g8
S'h\x03\x03\x00'
p1187
tp1188
Rp1189
(lp1190
F20.5
aF108.5
aF182.5
aI3344
aF18.553359031538136
aI4
ag1189
asg4
(g8
S'p\xe3\x01\x00'
p1191
tp1192
Rp1193
(lp1194
F175.5
aF121.5
aF136.5
aI2490
aF16.816421136397267
aI3
ag1193
asg4
(g8
S'q\x13\x04\x00'
p1195
tp1196
Rp1197
(lp1198
F159.5
aF156.5
aF63.5
aI1810
aF15.120285243427768
aI6
ag1197
asg4
(g8
S'}#\x00\x00'
p1199
tp1200
Rp1201
(lp1202
F50.5
aF127.5
aF198.5
aI4285
aF20.15196505148884
aI6
ag1201
asg4
(g8
S'~{\x04\x00'
p1203
tp1204
Rp1205
(lp1206
F184.5
aF71.5
aF50.5
aI1504
aF14.215094068450686
aI3
ag1205
asg4
(g8
S'\x89#\x01\x00'
p1207
tp1208
Rp1209
(lp1210
F196.5
aF77.5
aF58.5
aI7645
aF24.441411848593265
aI4
ag1209
asg4
(g8
S'\x91s\x02\x00'
p1211
tp1212
Rp1213
(lp1214
F115.5
aF210.5
aF48.5
aI2566
aF16.98580014662192
aI3
ag1213
asg4
(g8
S'\x97\x8b\x02\x00'
p1215
tp1216
Rp1217
(lp1218
F105.5
aF99.5
aF129.5
aI2401
aF16.613629176054697
aI5
ag1217
asg4
(g8
S'\x9d\xd3\x00\x00'
p1219
tp1220
Rp1221
(lp1222
F106.5
aF62.5
aF213.5
aI1172
aF13.081061770360389
aI2
ag1221
asg4
(g8
S'\xa3[\x01\x00'
p1223
tp1224
Rp1225
(lp1226
F93.5
aF81.5
aF42.5
aI2685
aF17.24441857252569
aI2
ag1225
asg4
(g8
S'\xa43\x02\x00'
p1227
tp1228
Rp1229
(lp1230
F130.5
aF106.5
aF263.5
aI2154
aF16.02319158825126
aI4
ag1229
asg4
(g8
S'\xabc\x00\x00'
p1231
tp1232
Rp1233
(lp1234
F127.5
aF87.5
aF233.5
aI6574
aF23.242188859067433
aI6
ag1233
asg4
(g8
S'\xaf\xa3\x01\x00'
p1235
tp1236
Rp1237
(lp1238
F161.5
aF51.5
aF305.5
aI4046
aF19.770109984498216
aI4
ag1237
asg4
(g8
S'\xb1\xf3\x02\x00'
p1239
tp1240
Rp1241
(lp1242
F36.5
aF79.5
aF135.5
aI11454
aF27.9674488299221
aI11
ag1241
asg4
(g8
S'\xb2\x8b\x04\x00'
p1243
tp1244
Rp1245
(lp1246
F128.5
aF65.5
aF77.5
aI2164
aF16.04794934021514
aI8
ag1245
asg4
(g8
S'\xb4\xf3\x02\x00'
p1247
tp1248
Rp1249
(lp1250
F95.5
aF93.5
aF142.5
aI4179
aF19.984406250051645
aI7
ag1249
asg4
(g8
S'I\xd7\x01\x00'
p1251
tp1252
Rp1253
(lp1254
F163.5
aF177.5
aF169.5
aI6249
aF22.852688546625753
aI8
ag1253
asg4
(g8
S'\xbb\x0b\x01\x00'
p1255
tp1256
Rp1257
(lp1258
F95.5
aF96.5
aF210.5
aI2235
aF16.221573115477803
aI4
ag1257
asg4
(g8
S'mD\x04\x00'
p1259
tp1260
Rp1261
(lp1262
F127.5
aF97.5
aF46.5
aI3198
aF18.279316210968105
aI6
ag1261
asg4
(g8
S'\xc2\x03\x05\x00'
p1263
tp1264
Rp1265
(lp1266
F103.5
aF130.5
aF25.5
aI1712
aF14.842317332459274
aI1
ag1265
asg4
(g8
S'\xc3\x93\x00\x00'
p1267
tp1268
Rp1269
(lp1270
F168.5
aF30.5
aF291.5
aI1838
aF15.19785493857623
aI4
ag1269
asg4
(g8
S'L\x9b\x02\x00'
p1271
tp1272
Rp1273
(lp1274
F23.5
aF144.5
aF106.5
aI1744
aF14.934222568073592
aI6
ag1273
asg4
(g8
S'\xca\x03\x03\x00'
p1275
tp1276
Rp1277
(lp1278
F121.5
aF107.5
aF249.5
aI4204
aF20.024177900594673
aI6
ag1277
asg4
(g8
S'\xcb\x03\x05\x00'
p1279
tp1280
Rp1281
(lp1282
F130.5
aF191.5
aF103.5
aI2238
aF16.22882784502968
aI3
ag1281
asg4
(g8
S'\xcc\xdb\x04\x00'
p1283
tp1284
Rp1285
(lp1286
F100.5
aF130.5
aF120.5
aI100
aF5.758823822969721
aI4
ag1285
asg4
(g8
S'\xce\xeb\x03\x00'
p1287
tp1288
Rp1289
(lp1290
F76.5
aF193.5
aF101.5
aI2247
aF16.25055320944879
aI5
ag1289
asg4
(g8
S'\xcf[\x02\x00'
p1291
tp1292
Rp1293
(lp1294
F61.5
aF170.5
aF197.5
aI769
aF11.36691395505539
aI3
ag1293
asg4
(g8
S'\xd4#\x02\x00'
p1295
tp1296
Rp1297
(lp1298
F71.5
aF69.5
aF87.5
aI3859
aF19.460711695329444
aI7
ag1297
asg4
(g8
S'\xd6\xcb\x04\x00'
p1299
tp1300
Rp1301
(lp1302
F158.5
aF137.5
aF102.5
aI1751
aF14.95417669716565
aI6
ag1301
asg4
(g8
S'\xd7k\x03\x00'
p1303
tp1304
Rp1305
(lp1306
F102.5
aF112.5
aF28.5
aI2173
aF16.070166188158048
aI3
ag1305
asg4
(g8
S'\xde\x13\x02\x00'
p1307
tp1308
Rp1309
(lp1310
F206.5
aF126.5
aF86.5
aI2073
aF15.81977224002331
aI5
ag1309
asg4
(g8
S'\xdfc\x03\x00'
p1311
tp1312
Rp1313
(lp1314
F120.5
aF144.5
aF21.5
aI2081
aF15.84009636353213
aI3
ag1313
asg4
(g8
S'\xe0\x93\x02\x00'
p1315
tp1316
Rp1317
(lp1318
F200.5
aF123.5
aF69.5
aI7154
aF23.906542535536186
aI9
ag1317
asg4
(g8
S'\xfba\x03\x00'
p1319
tp1320
Rp1321
(lp1322
F21.5
aF122.5
aF80.5
aI1277
aF13.460589860460779
aI2
ag1321
asg4
(g8
S'Q;\x01\x00'
p1323
tp1324
Rp1325
(lp1326
F133.5
aF166.5
aF98.5
aI2260
aF16.281832112765407
aI7
ag1325
asg4
(g8
S'\xe8{\x02\x00'
p1327
tp1328
Rp1329
(lp1330
F73.5
aF181.5
aF63.5
aI2006
aF15.647469082919635
aI5
ag1329
asg4
(g8
S'\xecK\x03\x00'
p1331
tp1332
Rp1333
(lp1334
F125.5
aF131.5
aF294.5
aI526
aF10.015263360449897
aI3
ag1333
asg4
(g8
S'\xed#\x02\x00'
p1335
tp1336
Rp1337
(lp1338
F162.5
aF53.5
aF176.5
aI3659
aF19.118534352210045
aI6
ag1337
asg4
(g8
S'\xee\xfb\x02\x00'
p1339
tp1340
Rp1341
(lp1342
F151.5
aF194.5
aF90.5
aI2080
aF15.837558699861097
aI4
ag1341
asg4
(g8
S'\xfd]\x01\x00'
p1343
tp1344
Rp1345
(lp1346
F143.5
aF138.5
aF260.5
aI432
aF9.379111701561264
aI3
ag1345
asg4
(g8
S'\xf2K\x00\x00'
p1347
tp1348
Rp1349
(lp1350
F96.5
aF163.5
aF132.5
aI2304
aF16.386817518127096
aI6
ag1349
asg4
(g8
S'\xf4;\x00\x00'
p1351
tp1352
Rp1353
(lp1354
F157.5
aF33.5
aF194.5
aI4773
aF20.889639119169523
aI4
ag1353
asg4
(g8
S'\xf7\x13\x03\x00'
p1355
tp1356
Rp1357
(lp1358
F117.5
aF193.5
aF162.5
aI3972
aF19.64883802242367
aI9
ag1357
asg4
(g8
S'\xf9\xab\x03\x00'
p1359
tp1360
Rp1361
(lp1362
F55.5
aF140.5
aF90.5
aI2564
aF16.98138595719586
aI9
ag1361
asg4
(g8
S'\xfaS\x02\x00'
p1363
tp1364
Rp1365
(lp1366
F68.5
aF127.5
aF162.5
aI9743
aF26.49911440094079
aI13
ag1365
asg4
(g8
S'\xfe\xf3\x01\x00'
p1367
tp1368
Rp1369
(lp1370
F188.5
aF138.5
aF94.5
aI3932
aF19.582657534456644
aI8
ag1369
asg4
(g8
S'U\x17\x03\x00'
p1371
tp1372
Rp1373
(lp1374
F67.5
aF117.5
aF87.5
aI1952
aF15.505784018230651
aI8
ag1373
asg4
(g8
S'\x04<\x04\x00'
p1375
tp1376
Rp1377
(lp1378
F118.5
aF147.5
aF182.5
aI3560
aF18.944528110006452
aI7
ag1377
asg4
(g8
S'\x07\x9c\x02\x00'
p1379
tp1380
Rp1381
(lp1382
F98.5
aF101.5
aF266.5
aI587
aF10.388348079335856
aI4
ag1381
asg4
(g8
S'\x08\\\x04\x00'
p1383
tp1384
Rp1385
(lp1386
F147.5
aF194.5
aF58.5
aI5843
aF22.346649708651373
aI6
ag1385
asg4
(g8
S'\x0c\x94\x02\x00'
p1387
tp1388
Rp1389
(lp1390
F130.5
aF63.5
aF295.5
aI3478
aF18.797942570308866
aI8
ag1389
asg4
(g8
S'\x0e\xc4\x01\x00'
p1391
tp1392
Rp1393
(lp1394
F176.5
aF111.5
aF122.5
aI1671
aF14.722874468920718
aI6
ag1393
asg4
(g8
S'\xc6\x1a\x03\x00'
p1395
tp1396
Rp1397
(lp1398
F127.5
aF124.5
aF188.5
aI2566
aF16.98580014662192
aI8
ag1397
asg4
(g8
S'\x13\xc4\x02\x00'
p1399
tp1400
Rp1401
(lp1402
F103.5
aF153.5
aF149.5
aI8197
aF25.01605199635259
aI7
ag1401
asg4
(g8
S'\x15\x0c\x01\x00'
p1403
tp1404
Rp1405
(lp1406
F162.5
aF69.5
aF181.5
aI2273
aF16.31299129630286
aI6
ag1405
asg4
(g8
S'\x18\xdc\x03\x00'
p1407
tp1408
Rp1409
(lp1410
F118.5
aF162.5
aF55.5
aI2797
aF17.48093325821408
aI6
ag1409
asg4
(g8
S'\xc4\xbf\x04\x00'
p1411
tp1412
Rp1413
(lp1414
F118.5
aF76.5
aF43.5
aI1483
aF14.148623051490755
aI4
ag1413
asg4
(g8
S'\x8e\xee\x02\x00'
p1415
tp1416
Rp1417
(lp1418
F121.5
aF113.5
aF27.5
aI1160
aF13.036263262736423
aI2
ag1417
asg4
(g8
S'!\xbc\x02\x00'
p1419
tp1420
Rp1421
(lp1422
F94.5
aF129.5
aF109.5
aI94
aF5.641263819521384
aI2
ag1421
asg4
(g8
S'$\xec\x03\x00'
p1423
tp1424
Rp1425
(lp1426
F50.5
aF151.5
aF194.5
aI2601
aF17.062679896526546
aI9
ag1425
asg4
(g8
S'%t\x00\x00'
p1427
tp1428
Rp1429
(lp1430
F126.5
aF36.5
aF226.5
aI5508
aF21.911146524828837
aI7
ag1429
asg4
(g8
S'\xb1T\x03\x00'
p1431
tp1432
Rp1433
(lp1434
F136.5
aF93.5
aF266.5
aI3820
aF19.394931356713496
aI6
ag1433
asg4
(g8
S'(\\\x04\x00'
p1435
tp1436
Rp1437
(lp1438
F70.5
aF163.5
aF212.5
aI6206
aF22.800150636341655
aI7
ag1437
asg4
(g8
S')L\x01\x00'
p1439
tp1440
Rp1441
(lp1442
F109.5
aF72.5
aF175.5
aI4532
aF20.53196079372065
aI9
ag1441
asg4
(g8
S'*,\x03\x00'
p1443
tp1444
Rp1445
(lp1446
F67.5
aF148.5
aF152.5
aI3682
aF19.158509585882392
aI9
ag1445
asg4
(g8
S',\\\x04\x00'
p1447
tp1448
Rp1449
(lp1450
F116.5
aF56.5
aF267.5
aI3389
aF18.636212284643275
aI5
ag1449
asg4
(g8
S'7|\x04\x00'
p1451
tp1452
Rp1453
(lp1454
F72.5
aF158.5
aF91.5
aI2484
aF16.802903107149916
aI13
ag1453
asg4
(g8
S'8\xd4\x00\x00'
p1455
tp1456
Rp1457
(lp1458
F92.5
aF87.5
aF262.5
aI8902
aF25.71360624426094
aI10
ag1457
asg4
(g8
S'9\xac\x02\x00'
p1459
tp1460
Rp1461
(lp1462
F165.5
aF56.5
aF37.5
aI285
aF8.164860065020099
aI2
ag1461
asg4
(g8
S':\x14\x04\x00'
p1463
tp1464
Rp1465
(lp1466
F139.5
aF34.5
aF259.5
aI11595
aF28.081741908799827
aI10
ag1465
asg4
(g8
S'?<\x00\x00'
p1467
tp1468
Rp1469
(lp1470
F119.5
aF103.5
aF139.5
aI1855
aF15.244567135039619
aI6
ag1469
asg4
(g8
S'@\xfc\x03\x00'
p1471
tp1472
Rp1473
(lp1474
F144.5
aF169.5
aF61.5
aI3382
aF18.623372370539936
aI6
ag1473
asg4
(g8
S'\xb6H\x00\x00'
p1475
tp1476
Rp1477
(lp1478
F147.5
aF48.5
aF291.5
aI2777
aF17.43916763914276
aI8
ag1477
asg4
(g8
S'I7\x04\x00'
p1479
tp1480
Rp1481
(lp1482
F85.5
aF115.5
aF208.5
aI4800
aF20.928954718421178
aI12
ag1481
asg4
(g8
S'X\xbc\x02\x00'
p1483
tp1484
Rp1485
(lp1486
F63.5
aF164.5
aF72.5
aI2692
aF17.259391406890643
aI6
ag1485
asg4
(g8
S'[\xec\x00\x00'
p1487
tp1488
Rp1489
(lp1490
F163.5
aF125.5
aF271.5
aI1932
aF15.45264520523512
aI4
ag1489
asg4
(g8
S']\xe4\x03\x00'
p1491
tp1492
Rp1493
(lp1494
F67.5
aF113.5
aF47.5
aI2225
aF16.19734369462579
aI4
ag1493
asg4
(g8
S'\x10b\x00\x00'
p1495
tp1496
Rp1497
(lp1498
F117.5
aF179.5
aF238.5
aI267
aF7.989216918353326
aI2
ag1497
asg4
(g8
S'fT\x01\x00'
p1499
tp1500
Rp1501
(lp1502
F185.5
aF60.5
aF105.5
aI619
aF10.57378987070811
aI4
ag1501
asg4
(g8
S'gT\x01\x00'
p1503
tp1504
Rp1505
(lp1506
F69.5
aF88.5
aF105.5
aI1795
aF15.078400582207868
aI6
ag1505
asg4
(g8
S'kt\x01\x00'
p1507
tp1508
Rp1509
(lp1510
F65.5
aF130.5
aF74.5
aI845
aF11.729676345377362
aI6
ag1509
asg4
(g8
S'm\x14\x04\x00'
p1511
tp1512
Rp1513
(lp1514
F119.5
aF123.5
aF61.5
aI2627
aF17.11934523485751
aI7
ag1513
asg4
(g8
S'n\xe4\x04\x00'
p1515
tp1516
Rp1517
(lp1518
F125.5
aF80.5
aF160.5
aI2395
aF16.599778707628538
aI7
ag1517
asg4
(g8
S'q|\x03\x00'
p1519
tp1520
Rp1521
(lp1522
F105.5
aF144.5
aF278.5
aI2644
aF17.156193774604944
aI5
ag1521
asg4
(g8
S'w\xec\x02\x00'
p1523
tp1524
Rp1525
(lp1526
F103.5
aF67.5
aF260.5
aI2063
aF15.79429341957077
aI4
ag1525
asg4
(g8
S'\x81<\x02\x00'
p1527
tp1528
Rp1529
(lp1530
F140.5
aF69.5
aF244.5
aI3076
aF18.04385116988693
aI6
ag1529
asg4
(g8
S'\x82<\x02\x00'
p1531
tp1532
Rp1533
(lp1534
F183.5
aF103.5
aF255.5
aI2601
aF17.062679896526546
aI2
ag1533
asg4
(g8
S'\x86\xac\x01\x00'
p1535
tp1536
Rp1537
(lp1538
F192.5
aF92.5
aF184.5
aI3325
aF18.51815333208858
aI5
ag1537
asg4
(g8
S'\x87\xd4\x00\x00'
p1539
tp1540
Rp1541
(lp1542
F170.5
aF129.5
aF207.5
aI2633
aF17.13236870525491
aI3
ag1541
asg4
(g8
S'\x89<\x00\x00'
p1543
tp1544
Rp1545
(lp1546
F79.5
aF120.5
aF97.5
aI5161
aF21.441002078415792
aI13
ag1545
asg4
(g8
S'\x8bl\x04\x00'
p1547
tp1548
Rp1549
(lp1550
F114.5
aF145.5
aF207.5
aI3727
aF19.236243097202063
aI8
ag1549
asg4
(g8
S'\x8cL\x04\x00'
p1551
tp1552
Rp1553
(lp1554
F28.5
aF124.5
aF194.5
aI93
aF5.62118797776233
aI3
ag1553
asg4
(g8
S'\xb7\x93\x00\x00'
p1555
tp1556
Rp1557
(lp1558
F99.5
aF185.5
aF159.5
aI2720
aF17.319024526192088
aI6
ag1557
asg4
(g8
S'\x91\xc4\x00\x00'
p1559
tp1560
Rp1561
(lp1562
F118.5
aF64.5
aF112.5
aI2020
aF15.683786283344627
aI2
ag1561
asg4
(g8
S'\x92\xac\x00\x00'
p1563
tp1564
Rp1565
(lp1566
F115.5
aF76.5
aF277.5
aI7231
aF23.992007015369648
aI6
ag1565
asg4
(g8
S'\x97,\x00\x00'
p1567
tp1568
Rp1569
(lp1570
F169.5
aF97.5
aF161.5
aI113
aF5.998278235900233
aI5
ag1569
asg4
(g8
S'p[\x00\x00'
p1571
tp1572
Rp1573
(lp1574
F19.5
aF125.5
aF185.5
aI2020
aF15.683786283344627
aI3
ag1573
asg4
(g8
S'\xa6\x1c\x04\x00'
p1575
tp1576
Rp1577
(lp1578
F155.5
aF20.5
aF290.5
aI2472
aF16.775801603485213
aI4
ag1577
asg4
(g8
S'\xa8\xac\x03\x00'
p1579
tp1580
Rp1581
(lp1582
F50.5
aF182.5
aF135.5
aI1706
aF14.824957881142286
aI3
ag1581
asg4
(g8
S'\xab\xf4\x03\x00'
p1583
tp1584
Rp1585
(lp1586
F166.5
aF57.5
aF71.5
aI3452
aF18.750983640379847
aI5
ag1585
asg4
(g8
S'\xc8\xb8\x00\x00'
p1587
tp1588
Rp1589
(lp1590
F98.5
aF103.5
aF149.5
aI33
aF3.979590992379178
aI4
ag1589
asg4
(g8
S'\xb6\xa4\x03\x00'
p1591
tp1592
Rp1593
(lp1594
F180.5
aF85.5
aF199.5
aI1514
aF14.246529584509856
aI5
ag1593
asg4
(g8
S'\xb8<\x02\x00'
p1595
tp1596
Rp1597
(lp1598
F84.5
aF93.5
aF89.5
aI2205
aF16.148666184880945
aI10
ag1597
asg4
(g8
S'\xba\xd4\x00\x00'
p1599
tp1600
Rp1601
(lp1602
F112.5
aF104.5
aF101.5
aI2844
aF17.578304769270247
aI7
ag1601
asg4
(g8
S'\xbf\xd4\x01\x00'
p1603
tp1604
Rp1605
(lp1606
F194.5
aF100.5
aF161.5
aI4217
aF20.04479687062388
aI5
ag1605
asg4
(g8
S'\xc0|\x00\x00'
p1607
tp1608
Rp1609
(lp1610
F47.5
aF69.5
aF114.5
aI8297
aF25.11736958173816
aI7
ag1609
asg4
(g8
S'\xc1<\x01\x00'
p1611
tp1612
Rp1613
(lp1614
F95.5
aF130.5
aF69.5
aI1561
aF14.392451023320254
aI6
ag1613
asg4
(g8
S'\xc6<\x01\x00'
p1615
tp1616
Rp1617
(lp1618
F150.5
aF38.5
aF102.5
aI2400
aF16.611322368308294
aI4
ag1617
asg4
(g8
S'\xc8\xf4\x00\x00'
p1619
tp1620
Rp1621
(lp1622
F65.5
aF119.5
aF122.5
aI2387
aF16.581275385944945
aI6
ag1621
asg4
(g8
S'\xd5<\x02\x00'
p1623
tp1624
Rp1625
(lp1626
F75.5
aF96.5
aF273.5
aI2200
aF16.136450850276375
aI1
ag1625
asg4
(g8
S'\xdd\\\x01\x00'
p1627
tp1628
Rp1629
(lp1630
F140.5
aF113.5
aF35.5
aI5560
aF21.979883679926758
aI6
ag1629
asg4
(g8
S'\xde\x14\x01\x00'
p1631
tp1632
Rp1633
(lp1634
F109.5
aF171.5
aF219.5
aI4962
aF21.16180521304187
aI9
ag1633
asg4
(g8
S'\xdf|\x04\x00'
p1635
tp1636
Rp1637
(lp1638
F49.5
aF165.5
aF135.5
aI2175
aF16.075094931355647
aI4
ag1637
asg4
(g8
S'\xe0|\x04\x00'
p1639
tp1640
Rp1641
(lp1642
F40.5
aF149.5
aF148.5
aI8324
aF25.14458563074855
aI9
ag1641
asg4
(g8
S'\xe2|\x02\x00'
p1643
tp1644
Rp1645
(lp1646
F92.5
aF174.5
aF176.5
aI4591
aF20.620675603795263
aI6
ag1645
asg4
(g8
S'\xe6t\x00\x00'
p1647
tp1648
Rp1649
(lp1650
F115.5
aF94.5
aF82.5
aI2907
aF17.707155580673195
aI6
ag1649
asg4
(g8
S'\xe7\\\x00\x00'
p1651
tp1652
Rp1653
(lp1654
F101.5
aF160.5
aF67.5
aI5720
aF22.188731189287093
aI9
ag1653
asg4
(g8
S'}S\x03\x00'
p1655
tp1656
Rp1657
(lp1658
F127.5
aF180.5
aF226.5
aI3355
aF18.573680361069275
aI3
ag1657
asg4
(g8
S'\xf0\x1c\x02\x00'
p1659
tp1660
Rp1661
(lp1662
F101.5
aF129.5
aF175.5
aI2478
aF16.78936329217515
aI5
ag1661
asg4
(g8
S'\xf1\xfc\x02\x00'
p1663
tp1664
Rp1665
(lp1666
F186.5
aF163.5
aF163.5
aI3377
aF18.614190152124852
aI2
ag1665
asg4
(g8
S'\xf2d\x04\x00'
p1667
tp1668
Rp1669
(lp1670
F149.5
aF143.5
aF70.5
aI3337
aF18.540404063413494
aI7
ag1669
asg4
(g8
S'\xf9\xac\x03\x00'
p1671
tp1672
Rp1673
(lp1674
F140.5
aF105.5
aF165.5
aI4440
aF20.392076385743852
aI9
ag1673
asg4
(g8
S'\xfc\xfc\x01\x00'
p1675
tp1676
Rp1677
(lp1678
F74.5
aF126.5
aF205.5
aI672
aF10.86734739333108
aI3
ag1677
asg4
(g8
S'\xfd\xa4\x03\x00'
p1679
tp1680
Rp1681
(lp1682
F147.5
aF52.5
aF40.5
aI30
aF3.855146420814098
aI2
ag1681
asg4
(g8
S'\xd5\x10\x04\x00'
p1683
tp1684
Rp1685
(lp1686
F31.5
aF80.5
aF107.5
aI2225
aF16.19734369462579
aI5
ag1685
asg4
(g8
S'\x0e+\x04\x00'
p1687
tp1688
Rp1689
(lp1690
F85.5
aF47.5
aF281.5
aI6025
aF22.57630219236413
aI3
ag1689
asg4
(g8
S'\x07\xad\x00\x00'
p1691
tp1692
Rp1693
(lp1694
F178.5
aF125.5
aF109.5
aI1879
aF15.310030384171142
aI5
ag1693
asg4
(g8
S'\n\xdd\x01\x00'
p1695
tp1696
Rp1697
(lp1698
F106.5
aF175.5
aF94.5
aI4194
aF20.00828821141054
aI4
ag1697
asg4
(g8
S'\x11\x8d\x00\x00'
p1699
tp1700
Rp1701
(lp1702
F69.5
aF165.5
aF136.5
aI1241
aF13.332892772815477
aI6
ag1701
asg4
(g8
S'\x16\xe5\x04\x00'
p1703
tp1704
Rp1705
(lp1706
F125.5
aF25.5
aF155.5
aI2850
aF17.59065776333528
aI3
ag1705
asg4
(g8
S'\x19]\x02\x00'
p1707
tp1708
Rp1709
(lp1710
F129.5
aF104.5
aF307.5
aI2819
aF17.526646117198894
aI4
ag1709
asg4
(g8
S'\x1am\x02\x00'
p1711
tp1712
Rp1713
(lp1714
F63.5
aF61.5
aF158.5
aI3699
aF19.187949627035554
aI10
ag1713
asg4
(g8
S'/\xf2\x04\x00'
p1715
tp1716
Rp1717
(lp1718
F149.5
aF176.5
aF25.5
aI2788
aF17.46216345144826
aI0
ag1717
asg4
(g8
S'"m\x01\x00'
p1719
tp1720
Rp1721
(lp1722
F190.5
aF66.5
aF102.5
aI323
aF8.51271250919745
aI2
ag1721
asg4
(g8
S'&\xb5\x02\x00'
p1723
tp1724
Rp1725
(lp1726
F137.5
aF122.5
aF260.5
aI2156
aF16.0281492592323
aI4
ag1725
asg4
(g8
S"'\x8d\x03\x00"
p1727
tp1728
Rp1729
(lp1730
F60.5
aF186.5
aF90.5
aI8194
aF25.01299976938277
aI11
ag1729
asg4
(g8
S',\xfd\x01\x00'
p1731
tp1732
Rp1733
(lp1734
F164.5
aF30.5
aF64.5
aI42
aF4.312709671069407
aI2
ag1733
asg4
(g8
S'\xdd\x94\x01\x00'
p1735
tp1736
Rp1737
(lp1738
F149.5
aF42.5
aF86.5
aI1723
aF14.874037943936035
aI6
ag1737
asg4
(g8
S'7\x85\x00\x00'
p1739
tp1740
Rp1741
(lp1742
F133.5
aF83.5
aF121.5
aI3502
aF18.841082004606392
aI7
ag1741
asg4
(g8
S'4\xea\x03\x00'
p1743
tp1744
Rp1745
(lp1746
F144.5
aF129.5
aF72.5
aI116
aF6.050897399235387
aI3
ag1745
asg4
(g8
S'=\x9d\x01\x00'
p1747
tp1748
Rp1749
(lp1750
F129.5
aF167.5
aF193.5
aI3469
aF18.78171412261293
aI6
ag1749
asg4
(g8
S'}k\x04\x00'
p1751
tp1752
Rp1753
(lp1754
F109.5
aF79.5
aF103.5
aI999
aF12.402872768725649
aI4
ag1753
asg4
(g8
S'@u\x02\x00'
p1755
tp1756
Rp1757
(lp1758
F130.5
aF46.5
aF218.5
aI155
aF6.664655293794289
aI2
ag1757
asg4
(g8
S'DE\x02\x00'
p1759
tp1760
Rp1761
(lp1762
F157.5
aF190.5
aF177.5
aI1590
aF14.48103158094035
aI2
ag1761
asg4
(g8
S'IE\x02\x00'
p1763
tp1764
Rp1765
(lp1766
F78.5
aF91.5
aF209.5
aI7699
aF24.49882370161062
aI7
ag1765
asg4
(g8
S'O\xd5\x01\x00'
p1767
tp1768
Rp1769
(lp1770
F128.5
aF58.5
aF59.5
aI1923
aF15.428613058825556
aI7
ag1769
asg4
(g8
S'Q\xdd\x00\x00'
p1771
tp1772
Rp1773
(lp1774
F172.5
aF67.5
aF120.5
aI10209
aF26.915029521365277
aI14
ag1773
asg4
(g8
S'S\xed\x03\x00'
p1775
tp1776
Rp1777
(lp1778
F97.5
aF168.5
aF52.5
aI1410
aF13.91255294618726
aI5
ag1777
asg4
(g8
S'U\xf5\x03\x00'
p1779
tp1780
Rp1781
(lp1782
F100.5
aF32.5
aF122.5
aI5105
aF21.363170569802588
aI6
ag1781
asg4
(g8
S'\\\xa5\x03\x00'
p1783
tp1784
Rp1785
(lp1786
F132.5
aF73.5
aF53.5
aI36
aF4.096704379531774
aI1
ag1785
asg4
(g8
S'^\xe5\x03\x00'
p1787
tp1788
Rp1789
(lp1790
F120.5
aF123.5
aF175.5
aI3434
aF18.71833531495233
aI6
ag1789
asg4
(g8
S'\xe5\xb8\x04\x00'
p1791
tp1792
Rp1793
(lp1794
F153.5
aF35.5
aF45.5
aI4492
aF20.471376314083308
aI5
ag1793
asg4
(g8
S'`M\x01\x00'
p1795
tp1796
Rp1797
(lp1798
F81.5
aF97.5
aF48.5
aI6617
aF23.292753861398104
aI8
ag1797
asg4
(g8
S'e\r\x01\x00'
p1799
tp1800
Rp1801
(lp1802
F41.5
aF76.5
aF149.5
aI95
aF5.661197779576941
aI2
ag1801
asg4
(g8
S'mu\x02\x00'
p1803
tp1804
Rp1805
(lp1806
F142.5
aF99.5
aF48.5
aI138
aF6.411507500999382
aI3
ag1805
asg4
(g8
S's\r\x03\x00'
p1807
tp1808
Rp1809
(lp1810
F42.5
aF78.5
aF69.5
aI3767
aF19.304815972245834
aI3
ag1809
asg4
(g8
S'w\xad\x01\x00'
p1811
tp1812
Rp1813
(lp1814
F70.5
aF107.5
aF224.5
aI8985
aF25.793274875247413
aI9
ag1813
asg4
(g8
S'{\x05\x04\x00'
p1815
tp1816
Rp1817
(lp1818
F96.5
aF132.5
aF161.5
aI110
aF5.944719320868062
aI3
ag1817
asg4
(g8
S'|\xd5\x03\x00'
p1819
tp1820
Rp1821
(lp1822
F143.5
aF51.5
aF74.5
aI3995
aF19.68669080670856
aI7
ag1821
asg4
(g8
S'\x7fu\x00\x00'
p1823
tp1824
Rp1825
(lp1826
F83.5
aF77.5
aF67.5
aI4442
aF20.39513779944932
aI7
ag1825
asg4
(g8
S'\x80\xd5\x02\x00'
p1827
tp1828
Rp1829
(lp1830
F84.5
aF161.5
aF164.5
aI726
aF11.15097048056836
aI4
ag1829
asg4
(g8
S'\x84\xfd\x01\x00'
p1831
tp1832
Rp1833
(lp1834
F158.5
aF69.5
aF82.5
aI1198
aF13.177086552814492
aI5
ag1833
asg4
(g8
S'\x87E\x01\x00'
p1835
tp1836
Rp1837
(lp1838
F99.5
aF137.5
aF113.5
aI690
aF10.963523608646161
aI3
ag1837
asg4
(g8
S'\x89\x1d\x04\x00'
p1839
tp1840
Rp1841
(lp1842
F39.5
aF171.5
aF84.5
aI2065
aF15.799395759909412
aI4
ag1841
asg4
(g8
S'\x8a\xc5\x00\x00'
p1843
tp1844
Rp1845
(lp1846
F164.5
aF113.5
aF258.5
aI2872
aF17.635804306502006
aI6
ag1845
asg4
(g8
S'\x8b\x9d\x01\x00'
p1847
tp1848
Rp1849
(lp1850
F114.5
aF190.5
aF224.5
aI1364
aF13.759582272309713
aI4
ag1849
asg4
(g8
S'\x8c%\x02\x00'
p1851
tp1852
Rp1853
(lp1854
F46.5
aF174.5
aF190.5
aI4373
aF20.28898331574563
aI4
ag1853
asg4
(g8
S'\x91}\x03\x00'
p1855
tp1856
Rp1857
(lp1858
F111.5
aF191.5
aF211.5
aI1283
aF13.481638510634616
aI3
ag1857
asg4
(g8
S'\x92\x95\x03\x00'
p1859
tp1860
Rp1861
(lp1862
F125.5
aF130.5
aF271.5
aI1352
aF13.719112678951708
aI6
ag1861
asg4
(g8
S'\x98}\x01\x00'
p1863
tp1864
Rp1865
(lp1866
F109.5
aF125.5
aF205.5
aI2329
aF16.445873879491355
aI6
ag1865
asg4
(g8
S'\x9c\xb5\x03\x00'
p1867
tp1868
Rp1869
(lp1870
F214.5
aF177.5
aF28.5
aI1670
aF14.71993694400857
aI0
ag1869
asg4
(g8
S'\x9e\x1d\x04\x00'
p1871
tp1872
Rp1873
(lp1874
F112.5
aF122.5
aF190.5
aI1984
aF15.590056238503024
aI5
ag1873
asg4
(g8
S'\x9f\xc5\x03\x00'
p1875
tp1876
Rp1877
(lp1878
F143.5
aF60.5
aF193.5
aI2083
aF15.845169253026587
aI5
ag1877
asg4
(g8
S'\xf0\xd4\x04\x00'
p1879
tp1880
Rp1881
(lp1882
F162.5
aF141.5
aF119.5
aI5686
aF22.144680106448128
aI5
ag1881
asg4
(g8
S'\xa5=\x03\x00'
p1883
tp1884
Rp1885
(lp1886
F100.5
aF202.5
aF129.5
aI4537
aF20.5395087544012
aI5
ag1885
asg4
(g8
S'\xa6]\x01\x00'
p1887
tp1888
Rp1889
(lp1890
F90.5
aF72.5
aF118.5
aI907
aF12.009812346089229
aI3
ag1889
asg4
(g8
S'\xf1\xcc\x03\x00'
p1891
tp1892
Rp1893
(lp1894
F75.5
aF83.5
aF167.5
aI2742
aF17.365592648116582
aI6
ag1893
asg4
(g8
S'\xa9\xa5\x00\x00'
p1895
tp1896
Rp1897
(lp1898
F20.5
aF120.5
aF126.5
aI2803
aF17.49342410437788
aI5
ag1897
asg4
(g8
S'\xaa\xf5\x00\x00'
p1899
tp1900
Rp1901
(lp1902
F168.5
aF101.5
aF36.5
aI3290
aF18.4529480269222
aI3
ag1901
asg4
(g8
S'\xb0%\x01\x00'
p1903
tp1904
Rp1905
(lp1906
F130.5
aF134.5
aF24.5
aI3044
aF17.981062141314947
aI4
ag1905
asg4
(g8
S'\xb1m\x02\x00'
p1907
tp1908
Rp1909
(lp1910
F49.5
aF80.5
aF153.5
aI760
aF11.322395559153883
aI7
ag1909
asg4
(g8
S'\xb2\xf5\x00\x00'
p1911
tp1912
Rp1913
(lp1914
F134.5
aF90.5
aF75.5
aI2273
aF16.31299129630286
aI8
ag1913
asg4
(g8
S'\xf4\xe0\x04\x00'
p1915
tp1916
Rp1917
(lp1918
F96.5
aF36.5
aF78.5
aI4147
aF19.933266402359532
aI4
ag1917
asg4
(g8
S'\xba\xa5\x02\x00'
p1919
tp1920
Rp1921
(lp1922
F85.5
aF59.5
aF183.5
aI3865
aF19.470792355871076
aI8
ag1921
asg4
(g8
S'\xbd\x15\x01\x00'
p1923
tp1924
Rp1925
(lp1926
F42.5
aF82.5
aF184.5
aI4863
aF21.020121197717817
aI4
ag1925
asg4
(g8
S'\xbe\xb5\x00\x00'
p1927
tp1928
Rp1929
(lp1930
F31.5
aF137.5
aF84.5
aI3322
aF18.512582286826973
aI7
ag1929
asg4
(g8
S'\xc2m\x00\x00'
p1931
tp1932
Rp1933
(lp1934
F106.5
aF19.5
aF73.5
aI1767
aF14.999587267636974
aI3
ag1933
asg4
(g8
S'\xc5-\x02\x00'
p1935
tp1936
Rp1937
(lp1938
F159.5
aF45.5
aF242.5
aI15287
aF30.792235133078222
aI8
ag1937
asg4
(g8
S'\xc6m\x04\x00'
p1939
tp1940
Rp1941
(lp1942
F100.5
aF108.5
aF188.5
aI2200
aF16.136450850276375
aI5
ag1941
asg4
(g8
S'\xc8\x95\x03\x00'
p1943
tp1944
Rp1945
(lp1946
F69.5
aF161.5
aF179.5
aI9166
aF25.965323842336588
aI10
ag1945
asg4
(g8
S'\xc9\xcd\x02\x00'
p1947
tp1948
Rp1949
(lp1950
F149.5
aF82.5
aF176.5
aI1756
aF14.968397109592411
aI4
ag1949
asg4
(g8
S'\xccm\x01\x00'
p1951
tp1952
Rp1953
(lp1954
F110.5
aF116.5
aF162.5
aI4311
aF20.192641436323026
aI14
ag1953
asg4
(g8
S'\xce}\x02\x00'
p1955
tp1956
Rp1957
(lp1958
F136.5
aF151.5
aF164.5
aI7963
aF24.775705560655318
aI9
ag1957
asg4
(g8
S'\xd1\xb5\x04\x00'
p1959
tp1960
Rp1961
(lp1962
F186.5
aF73.5
aF92.5
aI6585
aF23.255145030475664
aI8
ag1961
asg4
(g8
S'\xd3}\x00\x00'
p1963
tp1964
Rp1965
(lp1966
F28.5
aF124.5
aF100.5
aI5375
aF21.7333470657691
aI10
ag1965
asg4
(g8
S'\xd4\xfd\x04\x00'
p1967
tp1968
Rp1969
(lp1970
F56.5
aF94.5
aF172.5
aI2725
aF17.329630177664587
aI9
ag1969
asg4
(g8
S'\xd6M\x02\x00'
p1971
tp1972
Rp1973
(lp1974
F132.5
aF130.5
aF89.5
aI3397
aF18.65086484087869
aI7
ag1973
asg4
(g8
S'\xf9t\x04\x00'
p1975
tp1976
Rp1977
(lp1978
F74.5
aF149.5
aF29.5
aI1904
aF15.377631183084205
aI4
ag1977
asg4
(g8
S'\xdc\xe5\x03\x00'
p1979
tp1980
Rp1981
(lp1982
F140.5
aF150.5
aF104.5
aI1650
aF14.660938567630446
aI6
ag1981
asg4
(g8
S'\xde]\x04\x00'
p1983
tp1984
Rp1985
(lp1986
F149.5
aF99.5
aF183.5
aI1812
aF15.125852359263437
aI6
ag1985
asg4
(g8
S'\xe8\xa5\x00\x00'
p1987
tp1988
Rp1989
(lp1990
F87.5
aF95.5
aF115.5
aI7459
aF24.241565435248496
aI9
ag1989
asg4
(g8
S'\xfc\xbc\x04\x00'
p1991
tp1992
Rp1993
(lp1994
F152.5
aF131.5
aF243.5
aI2722
aF17.323268345162774
aI6
ag1993
asg4
(g8
S'\xea=\x02\x00'
p1995
tp1996
Rp1997
(lp1998
F199.5
aF153.5
aF58.5
aI2634
aF17.13453735954456
aI6
ag1997
asg4
(g8
S'\xeb\xfd\x03\x00'
p1999
tp2000
Rp2001
(lp2002
F79.5
aF96.5
aF170.5
aI2112
aF15.918363969516712
aI5
ag2001
asg4
(g8
S'\xf0\x85\x04\x00'
p2003
tp2004
Rp2005
(lp2006
F104.5
aF151.5
aF28.5
aI5050
aF21.286172891210107
aI7
ag2005
asg4
(g8
S'\xf1\xe5\x01\x00'
p2007
tp2008
Rp2009
(lp2010
F72.5
aF54.5
aF104.5
aI2503
aF16.84563587838037
aI6
ag2009
asg4
(g8
S'\xf6\xa5\x02\x00'
p2011
tp2012
Rp2013
(lp2014
F161.5
aF39.5
aF60.5
aI3231
aF18.341975622231963
aI6
ag2013
asg4
(g8
S'\xf7\xe5\x02\x00'
p2015
tp2016
Rp2017
(lp2018
F109.5
aF120.5
aF266.5
aI1403
aF13.889491603738605
aI3
ag2017
asg4
(g8
S'\xfb\xed\x02\x00'
p2019
tp2020
Rp2021
(lp2022
F71.5
aF191.5
aF201.5
aI2016
aF15.673427108413085
aI4
ag2021
asg4
(g8
S'\xfd\x05\x02\x00'
p2023
tp2024
Rp2025
(lp2026
F46.5
aF152.5
aF68.5
aI5457
aF21.843309723724413
aI5
ag2025
asg4
(g8
S'\x0bF\x00\x00'
p2027
tp2028
Rp2029
(lp2030
F182.5
aF71.5
aF203.5
aI8016
aF24.830551299517666
aI5
ag2029
asg4
(g8
S'X\xaa\x02\x00'
p2031
tp2032
Rp2033
(lp2034
F175.5
aF40.5
aF69.5
aI811
aF11.57019674519295
aI3
ag2033
asg4
(g8
S'\x12\x86\x01\x00'
p2035
tp2036
Rp2037
(lp2038
F113.5
aF172.5
aF119.5
aI10324
aF27.015714487121425
aI12
ag2037
asg4
(g8
S'\x13\xa6\x03\x00'
p2039
tp2040
Rp2041
(lp2042
F127.5
aF132.5
aF251.5
aI2047
aF15.753355491819484
aI6
ag2041
asg4
(g8
S'\x15\xb6\x00\x00'
p2043
tp2044
Rp2045
(lp2046
F146.5
aF62.5
aF151.5
aI3253
aF18.38351189003301
aI7
ag2045
asg4
(g8
S'\x1d>\x03\x00'
p2047
tp2048
Rp2049
(lp2050
F31.5
aF128.5
aF229.5
aI7332
aF24.103194834226386
aI6
ag2049
asg4
(g8
S'\x1f\x9e\x04\x00'
p2051
tp2052
Rp2053
(lp2054
F162.5
aF74.5
aF139.5
aI40
aF4.2431376717882205
aI2
ag2053
asg4
(g8
S'#\x86\x01\x00'
p2055
tp2056
Rp2057
(lp2058
F84.5
aF79.5
aF243.5
aI3466
aF18.77629840313085
aI4
ag2057
asg4
(g8
S'&\x16\x02\x00'
p2059
tp2060
Rp2061
(lp2062
F77.5
aF69.5
aF125.5
aI2231
aF16.211890037149185
aI5
ag2061
asg4
(g8
S'\\B\x02\x00'
p2063
tp2064
Rp2065
(lp2066
F175.5
aF57.5
aF312.5
aI1167
aF13.06243306134725
aI1
ag2065
asg4
(g8
S'5F\x01\x00'
p2067
tp2068
Rp2069
(lp2070
F158.5
aF93.5
aF88.5
aI2787
aF17.460075425187597
aI4
ag2069
asg4
(g8
S'7\x1e\x03\x00'
p2071
tp2072
Rp2073
(lp2074
F79.5
aF124.5
aF307.5
aI6047
aF22.60374757763694
aI3
ag2073
asg4
(g8
S'?&\x03\x00'
p2075
tp2076
Rp2077
(lp2078
F55.5
aF109.5
aF134.5
aI2329
aF16.445873879491355
aI5
ag2077
asg4
(g8
S'`\xf6\x04\x00'
p2079
tp2080
Rp2081
(lp2082
F160.5
aF139.5
aF182.5
aI3950
aF19.612494031893423
aI4
ag2081
asg4
(g8
S'D\xfe\x02\x00'
p2083
tp2084
Rp2085
(lp2086
F188.5
aF95.5
aF41.5
aI6018
aF22.5675555612393
aI9
ag2085
asg4
(g8
S'\xdd\xb4\x01\x00'
p2087
tp2088
Rp2089
(lp2090
F78.5
aF111.5
aF84.5
aI73
aF5.185310244220402
aI2
ag2089
asg4
(g8
S'I\x9e\x02\x00'
p2091
tp2092
Rp2093
(lp2094
F139.5
aF113.5
aF236.5
aI4558
aF20.57114977301306
aI9
ag2093
asg4
(g8
S'KF\x01\x00'
p2095
tp2096
Rp2097
(lp2098
F65.5
aF81.5
aF237.5
aI1724
aF14.876914933938915
aI3
ag2097
asg4
(g8
S'O\x9e\x03\x00'
p2099
tp2100
Rp2101
(lp2102
F94.5
aF113.5
aF237.5
aI2183
aF16.094779745060336
aI2
ag2101
asg4
(g8
S'X\x1e\x01\x00'
p2103
tp2104
Rp2105
(lp2106
F54.5
aF104.5
aF206.5
aI781
aF11.425734738249664
aI3
ag2105
asg4
(g8
S'YF\x04\x00'
p2107
tp2108
Rp2109
(lp2110
F83.5
aF115.5
aF170.5
aI3806
aF19.371208719112957
aI7
ag2109
asg4
(g8
S'\\\x96\x03\x00'
p2111
tp2112
Rp2113
(lp2114
F135.5
aF79.5
aF145.5
aI5099
aF21.35479778016594
aI7
ag2113
asg4
(g8
S']\xc6\x04\x00'
p2115
tp2116
Rp2117
(lp2118
F57.5
aF126.5
aF103.5
aI2740
aF17.36136949798699
aI6
ag2117
asg4
(g8
S'_\xde\x03\x00'
p2119
tp2120
Rp2121
(lp2122
F41.5
aF164.5
aF173.5
aI2771
aF17.426598865319065
aI8
ag2121
asg4
(g8
S'`\x96\x03\x00'
p2123
tp2124
Rp2125
(lp2126
F44.5
aF108.5
aF173.5
aI4186
aF19.99555826478251
aI7
ag2125
asg4
(g8
S'c\xee\x01\x00'
p2127
tp2128
Rp2129
(lp2130
F36.5
aF133.5
aF111.5
aI82
aF5.390202444799826
aI4
ag2129
asg4
(g8
S'h\x06\x04\x00'
p2131
tp2132
Rp2133
(lp2134
F104.5
aF40.5
aF156.5
aI3882
aF19.49929769023775
aI6
ag2133
asg4
(g8
S'n\x8e\x00\x00'
p2135
tp2136
Rp2137
(lp2138
F132.5
aF176.5
aF116.5
aI2074
aF15.822315611809904
aI8
ag2137
asg4
(g8
S's\x1e\x00\x00'
p2139
tp2140
Rp2141
(lp2142
F79.5
aF199.5
aF61.5
aI1733
aF14.902757918599368
aI4
ag2141
asg4
(g8
S'w>\x00\x00'
p2143
tp2144
Rp2145
(lp2146
F33.5
aF70.5
aF99.5
aI682
aF10.920987686853714
aI3
ag2145
asg4
(g8
S'x\xde\x01\x00'
p2147
tp2148
Rp2149
(lp2150
F165.5
aF95.5
aF235.5
aI2154
aF16.02319158825126
aI7
ag2149
asg4
(g8
S'j\xc2\x03\x00'
p2151
tp2152
Rp2153
(lp2154
F142.5
aF79.5
aF207.5
aI10059
aF26.782558484556162
aI10
ag2153
asg4
(g8
S'\x83f\x03\x00'
p2155
tp2156
Rp2157
(lp2158
F117.5
aF82.5
aF110.5
aI1184
aF13.125555520335219
aI3
ag2157
asg4
(g8
S'\x87\x1e\x02\x00'
p2159
tp2160
Rp2161
(lp2162
F172.5
aF103.5
aF155.5
aI103
aF5.815845589022965
aI4
ag2161
asg4
(g8
S'\x8b\xbe\x04\x00'
p2163
tp2164
Rp2165
(lp2166
F175.5
aF156.5
aF154.5
aI6367
aF22.995635133890644
aI8
ag2165
asg4
(g8
S'\x8e^\x00\x00'
p2167
tp2168
Rp2169
(lp2170
F65.5
aF188.5
aF124.5
aI5922
aF22.44691146271169
aI7
ag2169
asg4
(g8
S'\x906\x00\x00'
p2171
tp2172
Rp2173
(lp2174
F121.5
aF197.5
aF181.5
aI5457
aF21.843309723724413
aI5
ag2173
asg4
(g8
S'\x91\xb6\x02\x00'
p2175
tp2176
Rp2177
(lp2178
F85.5
aF144.5
aF87.5
aI2473
aF16.77806340769268
aI10
ag2177
asg4
(g8
S'\x92V\x02\x00'
p2179
tp2180
Rp2181
(lp2182
F44.5
aF157.5
aF80.5
aI1747
aF14.942780863682064
aI7
ag2181
asg4
(g8
S'\x94N\x00\x00'
p2183
tp2184
Rp2185
(lp2186
F150.5
aF65.5
aF268.5
aI4142
aF19.925252061514026
aI5
ag2185
asg4
(g8
S'n\xa6\x01\x00'
p2187
tp2188
Rp2189
(lp2190
F163.5
aF79.5
aF224.5
aI260
aF7.918779349930548
aI1
ag2189
asg4
(g8
S"\xc4'\x04\x00"
p2191
tp2192
Rp2193
(lp2194
F72.5
aF178.5
aF147.5
aI4568
aF20.58618277293576
aI6
ag2193
asg4
(g8
S'\x9bf\x02\x00'
p2195
tp2196
Rp2197
(lp2198
F107.5
aF42.5
aF201.5
aI1988
aF15.600526393590135
aI8
ag2197
asg4
(g8
S'\x9cf\x02\x00'
p2199
tp2200
Rp2201
(lp2202
F86.5
aF153.5
aF201.5
aI4384
aF20.305980948712705
aI7
ag2201
asg4
(g8
S'\x9d\x8e\x02\x00'
p2203
tp2204
Rp2205
(lp2206
F162.5
aF56.5
aF270.5
aI3608
aF19.02929222806954
aI4
ag2205
asg4
(g8
S'\x9e\xc6\x00\x00'
p2207
tp2208
Rp2209
(lp2210
F177.5
aF126.5
aF218.5
aI2575
aF17.005635665010203
aI2
ag2209
asg4
(g8
S'\xa0\xae\x00\x00'
p2211
tp2212
Rp2213
(lp2214
F115.5
aF102.5
aF178.5
aI106
aF5.871770611970456
aI3
ag2213
asg4
(g8
S'\xa4f\x00\x00'
p2215
tp2216
Rp2217
(lp2218
F188.5
aF118.5
aF60.5
aI963
aF12.252063009197071
aI4
ag2217
asg4
(g8
S'\xa7F\x00\x00'
p2219
tp2220
Rp2221
(lp2222
F109.5
aF71.5
aF146.5
aI3519
aF18.871519992910258
aI4
ag2221
asg4
(g8
S'\xa9\xbe\x01\x00'
p2223
tp2224
Rp2225
(lp2226
F132.5
aF56.5
aF98.5
aI4104
aF19.86413127241712
aI6
ag2225
asg4
(g8
S'\xaf\x9e\x04\x00'
p2227
tp2228
Rp2229
(lp2230
F207.5
aF98.5
aF60.5
aI2247
aF16.25055320944879
aI2
ag2229
asg4
(g8
S'\xb1\xb6\x03\x00'
p2231
tp2232
Rp2233
(lp2234
F105.5
aF62.5
aF54.5
aI4561
aF20.575661979732246
aI4
ag2233
asg4
(g8
S'\xb2^\x02\x00'
p2235
tp2236
Rp2237
(lp2238
F148.5
aF21.5
aF226.5
aI1372
aF13.78643030579775
aI2
ag2237
asg4
(g8
S'\xb4\x0e\x02\x00'
p2239
tp2240
Rp2241
(lp2242
F106.5
aF133.5
aF249.5
aI6829
aF23.538899976733656
aI8
ag2241
asg4
(g8
S'\xb9V\x00\x00'
p2243
tp2244
Rp2245
(lp2246
F90.5
aF177.5
aF63.5
aI2271
aF16.308205322345835
aI6
ag2245
asg4
(g8
S'\xbf\xee\x03\x00'
p2247
tp2248
Rp2249
(lp2250
F167.5
aF158.5
aF176.5
aI2232
aF16.21431189108978
aI4
ag2249
asg4
(g8
S'\xc2^\x04\x00'
p2251
tp2252
Rp2253
(lp2254
F138.5
aF173.5
aF183.5
aI1784
aF15.04753663167479
aI4
ag2253
asg4
(g8
S'\xc4~\x02\x00'
p2255
tp2256
Rp2257
(lp2258
F162.5
aF98.5
aF196.5
aI6564
aF23.23039797389708
aI8
ag2257
asg4
(g8
S'v\xc2\x04\x00'
p2259
tp2260
Rp2261
(lp2262
F71.5
aF180.5
aF118.5
aI34
aF4.019389542491952
aI2
ag2261
asg4
(g8
S'!A\x04\x00'
p2263
tp2264
Rp2265
(lp2266
F191.5
aF107.5
aF193.5
aI2686
aF17.246559140890838
aI2
ag2265
asg4
(g8
S'\xca\x86\x00\x00'
p2267
tp2268
Rp2269
(lp2270
F92.5
aF190.5
aF66.5
aI2246
aF16.24814214810636
aI7
ag2269
asg4
(g8
S'w\x96\x04\x00'
p2271
tp2272
Rp2273
(lp2274
F128.5
aF59.5
aF161.5
aI5748
aF22.224877661917912
aI7
ag2273
asg4
(g8
S'"%\x01\x00'
p2275
tp2276
Rp2277
(lp2278
F26.5
aF108.5
aF204.5
aI5944
aF22.474673580738546
aI10
ag2277
asg4
(g8
S'\xcf\x16\x02\x00'
p2279
tp2280
Rp2281
(lp2282
F145.5
aF59.5
aF249.5
aI299
aF8.296422398793604
aI3
ag2281
asg4
(g8
S'\xd2\xae\x04\x00'
p2283
tp2284
Rp2285
(lp2286
F39.5
aF96.5
aF204.5
aI1799
aF15.089592570419665
aI2
ag2285
asg4
(g8
S'\xd6\xa6\x04\x00'
p2287
tp2288
Rp2289
(lp2290
F66.5
aF146.5
aF202.5
aI4136
aF19.915626334382463
aI8
ag2289
asg4
(g8
S'\xdb\xd6\x00\x00'
p2291
tp2292
Rp2293
(lp2294
F142.5
aF50.5
aF124.5
aI2857
aF17.60504769663609
aI5
ag2293
asg4
(g8
S'\xdf\x06\x02\x00'
p2295
tp2296
Rp2297
(lp2298
F142.5
aF187.5
aF126.5
aI341
aF8.66799367132167
aI3
ag2297
asg4
(g8
S'\xe2\x9e\x02\x00'
p2299
tp2300
Rp2301
(lp2302
F100.5
aF125.5
aF149.5
aI4184
aF19.992373244297795
aI13
ag2301
asg4
(g8
S'\xe3F\x01\x00'
p2303
tp2304
Rp2305
(lp2306
F103.5
aF143.5
aF167.5
aI377
aF8.962879877785609
aI5
ag2305
asg4
(g8
S'\xe5.\x02\x00'
p2307
tp2308
Rp2309
(lp2310
F167.5
aF137.5
aF90.5
aI3227
aF18.334403332952675
aI9
ag2309
asg4
(g8
S'\xe8\xce\x04\x00'
p2311
tp2312
Rp2313
(lp2314
F173.5
aF44.5
aF88.5
aI5018
aF21.24111669533552
aI7
ag2313
asg4
(g8
S'\xea>\x03\x00'
p2315
tp2316
Rp2317
(lp2318
F113.5
aF211.5
aF53.5
aI1133
aF12.934324799812448
aI3
ag2317
asg4
(g8
S'"M\x03\x00'
p2319
tp2320
Rp2321
(lp2322
F129.5
aF106.5
aF69.5
aI4109
aF19.872194978455216
aI10
ag2321
asg4
(g8
S'\xed\xfe\x00\x00'
p2323
tp2324
Rp2325
(lp2326
F190.5
aF142.5
aF72.5
aI2075
aF15.824858166186276
aI8
ag2325
asg4
(g8
S'\xee\x1e\x03\x00'
p2327
tp2328
Rp2329
(lp2330
F98.5
aF77.5
aF60.5
aI3506
aF18.848252731085427
aI9
ag2329
asg4
(g8
S'\xef\xe6\x00\x00'
p2331
tp2332
Rp2333
(lp2334
F139.5
aF153.5
aF190.5
aI3162
aF18.210466909957955
aI8
ag2333
asg4
(g8
S'\xf0\xd6\x01\x00'
p2335
tp2336
Rp2337
(lp2338
F106.5
aF16.5
aF152.5
aI1664
aF14.702287122592438
aI4
ag2337
asg4
(g8
S'\xf8~\x00\x00'
p2339
tp2340
Rp2341
(lp2342
F81.5
aF133.5
aF219.5
aI623
aF10.5965170548072
aI4
ag2341
asg4
(g8
S'\xfa~\x04\x00'
p2343
tp2344
Rp2345
(lp2346
F88.5
aF132.5
aF190.5
aI1628
aF14.595487077443849
aI9
ag2345
asg4
(g8
S'\xfc\x06\x00\x00'
p2347
tp2348
Rp2349
(lp2350
F117.5
aF142.5
aF290.5
aI2321
aF16.42702202301415
aI5
ag2349
asg4
(g8
S's0\x02\x00'
p2351
tp2352
Rp2353
(lp2354
F190.5
aF167.5
aF46.5
aI2902
aF17.696997733342688
aI3
ag2353
asg4
(g8
S'\x04\x1f\x03\x00'
p2355
tp2356
Rp2357
(lp2358
F198.5
aF80.5
aF163.5
aI6778
aF23.480156147731485
aI4
ag2357
asg4
(g8
S'\x05\xaf\x02\x00'
p2359
tp2360
Rp2361
(lp2362
F153.5
aF173.5
aF91.5
aI2611
aF17.084518752944387
aI5
ag2361
asg4
(g8
S'\x0b\xf7\x02\x00'
p2363
tp2364
Rp2365
(lp2366
F190.5
aF96.5
aF69.5
aI1314
aF13.58935719884385
aI4
ag2365
asg4
(g8
S'\x10\xcf\x00\x00'
p2367
tp2368
Rp2369
(lp2370
F133.5
aF23.5
aF57.5
aI2020
aF15.683786283344627
aI4
ag2369
asg4
(g8
S'\x12\xc7\x01\x00'
p2371
tp2372
Rp2373
(lp2374
F104.5
aF152.5
aF101.5
aI6912
aF23.633880524224715
aI6
ag2373
asg4
(g8
S'\x14\xd7\x02\x00'
p2375
tp2376
Rp2377
(lp2378
F94.5
aF69.5
aF159.5
aI3314
aF18.497709749967758
aI9
ag2377
asg4
(g8
S"\x15'\x03\x00"
p2379
tp2380
Rp2381
(lp2382
F166.5
aF125.5
aF197.5
aI2140
aF15.988401670755875
aI5
ag2381
asg4
(g8
S'\x16\x87\x01\x00'
p2383
tp2384
Rp2385
(lp2386
F123.5
aF135.5
aF119.5
aI4940
aF21.130483873219966
aI9
ag2385
asg4
(g8
S'\x17\x8f\x02\x00'
p2387
tp2388
Rp2389
(lp2390
F61.5
aF188.5
aF69.5
aI3107
aF18.104264125877624
aI7
ag2389
asg4
(g8
S'\x1a7\x00\x00'
p2391
tp2392
Rp2393
(lp2394
F76.5
aF54.5
aF169.5
aI1901
aF15.369550450548891
aI7
ag2393
asg4
(g8
S'/\xa5\x04\x00'
p2395
tp2396
Rp2397
(lp2398
F77.5
aF120.5
aF144.5
aI2303
aF16.38444639705245
aI8
ag2397
asg4
(g8
S'\x1e\x87\x01\x00'
p2399
tp2400
Rp2401
(lp2402
F150.5
aF191.5
aF152.5
aI5748
aF22.224877661917912
aI6
ag2401
asg4
(g8
S'&\xff\x03\x00'
p2403
tp2404
Rp2405
(lp2406
F117.5
aF96.5
aF32.5
aI4415
aF20.35373090905877
aI6
ag2405
asg4
(g8
S"'G\x01\x00"
p2407
tp2408
Rp2409
(lp2410
F95.5
aF120.5
aF117.5
aI71
aF5.137516647158831
aI4
ag2409
asg4
(g8
S'\x87\xd6\x00\x00'
p2411
tp2412
Rp2413
(lp2414
F57.5
aF43.5
aF161.5
aI7341
aF24.11305299272195
aI5
ag2413
asg4
(g8
S'._\x00\x00'
p2415
tp2416
Rp2417
(lp2418
F147.5
aF88.5
aF104.5
aI2199
aF16.134005562945365
aI6
ag2417
asg4
(g8
S'1\xf7\x01\x00'
p2419
tp2420
Rp2421
(lp2422
F164.5
aF141.5
aF259.5
aI3667
aF19.13245773217159
aI6
ag2421
asg4
(g8
S'\xb4\xc2\x02\x00'
p2423
tp2424
Rp2425
(lp2426
F174.5
aF145.5
aF134.5
aI2831
aF17.55148022213612
aI4
ag2425
asg4
(g8
S'4\xc7\x02\x00'
p2427
tp2428
Rp2429
(lp2430
F61.5
aF100.5
aF124.5
aI1986
aF15.595293073374048
aI4
ag2429
asg4
(g8
S'<\xa7\x00\x00'
p2431
tp2432
Rp2433
(lp2434
F153.5
aF162.5
aF109.5
aI8286
aF25.106264633932216
aI15
ag2433
asg4
(g8
S'fh\x04\x00'
p2435
tp2436
Rp2437
(lp2438
F131.5
aF57.5
aF257.5
aI4105
aF19.86574453736959
aI5
ag2437
asg4
(g8
S'@\x87\x04\x00'
p2439
tp2440
Rp2441
(lp2442
F179.5
aF45.5
aF111.5
aI2738
aF17.35714429229617
aI9
ag2441
asg4
(g8
S'B\xe7\x02\x00'
p2443
tp2444
Rp2445
(lp2446
F197.5
aF121.5
aF175.5
aI220
aF7.489877008078426
aI3
ag2445
asg4
(g8
S'D\x17\x04\x00'
p2447
tp2448
Rp2449
(lp2450
F34.5
aF99.5
aF102.5
aI6418
aF23.05687066692499
aI9
ag2449
asg4
(g8
S'I\xa7\x00\x00'
p2451
tp2452
Rp2453
(lp2454
F35.5
aF144.5
aF185.5
aI2824
aF17.537002209254815
aI8
ag2453
asg4
(g8
S'K/\x03\x00'
p2455
tp2456
Rp2457
(lp2458
F158.5
aF113.5
aF227.5
aI4552
aF20.562119416377254
aI4
ag2457
asg4
(g8
S'M?\x03\x00'
p2459
tp2460
Rp2461
(lp2462
F158.5
aF60.5
aF202.5
aI1182
aF13.11816083960369
aI3
ag2461
asg4
(g8
S'P\xef\x01\x00'
p2463
tp2464
Rp2465
(lp2466
F187.5
aF61.5
aF67.5
aI2718
aF17.314778626407772
aI7
ag2465
asg4
(g8
S'RG\x04\x00'
p2467
tp2468
Rp2469
(lp2470
F188.5
aF154.5
aF107.5
aI1780
aF15.036281925432684
aI3
ag2469
asg4
(g8
S'\x8e\x9e\x02\x00'
p2471
tp2472
Rp2473
(lp2474
F165.5
aF100.5
aF138.5
aI8254
aF25.07390334501201
aI10
ag2473
asg4
(g8
S'V/\x00\x00'
p2475
tp2476
Rp2477
(lp2478
F189.5
aF165.5
aF126.5
aI4014
aF19.717851065752416
aI3
ag2477
asg4
(g8
S'`\xef\x01\x00'
p2479
tp2480
Rp2481
(lp2482
F150.5
aF200.5
aF143.5
aI185
aF7.069538034737422
aI1
ag2481
asg4
(g8
S'a7\x02\x00'
p2483
tp2484
Rp2485
(lp2486
F151.5
aF116.5
aF196.5
aI3187
aF18.25833398671224
aI5
ag2485
asg4
(g8
S'c\x1f\x03\x00'
p2487
tp2488
Rp2489
(lp2490
F110.5
aF162.5
aF178.5
aI3615
aF19.041590730763403
aI8
ag2489
asg4
(g8
S'ew\x01\x00'
p2491
tp2492
Rp2493
(lp2494
F74.5
aF137.5
aF137.5
aI5055
aF21.293195713524728
aI8
ag2493
asg4
(g8
S"f'\x00\x00"
p2495
tp2496
Rp2497
(lp2498
F30.5
aF154.5
aF89.5
aI3710
aF19.206951029971993
aI5
ag2497
asg4
(g8
S'h\xf7\x00\x00'
p2499
tp2500
Rp2501
(lp2502
F112.5
aF62.5
aF294.5
aI2690
aF17.25511610540117
aI4
ag2501
asg4
(g8
S'm\x87\x00\x00'
p2503
tp2504
Rp2505
(lp2506
F192.5
aF124.5
aF38.5
aI5353
aF21.703654820174005
aI4
ag2505
asg4
(g8
S'o\x87\x00\x00'
p2507
tp2508
Rp2509
(lp2510
F92.5
aF134.5
aF52.5
aI2714
aF17.306280574183166
aI4
ag2509
asg4
(g8
S'p\xff\x01\x00'
p2511
tp2512
Rp2513
(lp2514
F57.5
aF121.5
aF141.5
aI98
aF5.720172834077734
aI4
ag2513
asg4
(g8
S'\x97w\x04\x00'
p2515
tp2516
Rp2517
(lp2518
F148.5
aF148.5
aF234.5
aI3052
aF17.99680049695685
aI4
ag2517
asg4
(g8
S'\xb0\xda\x03\x00'
p2519
tp2520
Rp2521
(lp2522
F59.5
aF67.5
aF142.5
aI1547
aF14.349294989070653
aI5
ag2521
asg4
(g8
S'\x7f\xc7\x03\x00'
p2523
tp2524
Rp2525
(lp2526
F117.5
aF102.5
aF219.5
aI4398
aF20.32757322787585
aI4
ag2525
asg4
(g8
S'\x81\x9f\x00\x00'
p2527
tp2528
Rp2529
(lp2530
F108.5
aF70.5
aF85.5
aI1
aF1.2407009817988002
aI1
ag2529
asg4
(g8
S'\x82\x07\x00\x00'
p2531
tp2532
Rp2533
(lp2534
F144.5
aF125.5
aF156.5
aI902
aF11.987702921372863
aI4
ag2533
asg4
(g8
S'\x8d\x07\x02\x00'
p2535
tp2536
Rp2537
(lp2538
F74.5
aF109.5
aF190.5
aI2225
aF16.19734369462579
aI11
ag2537
asg4
(g8
S'\xed\x0b\x03\x00'
p2539
tp2540
Rp2541
(lp2542
F91.5
aF193.5
aF162.5
aI102
aF5.796962840557109
aI3
ag2541
asg4
(g8
S'\x92g\x02\x00'
p2543
tp2544
Rp2545
(lp2546
F112.5
aF95.5
aF188.5
aI1610
aF14.541495879641923
aI6
ag2545
asg4
(g8
S'\xee\xa3\x04\x00'
p2547
tp2548
Rp2549
(lp2550
F125.5
aF177.5
aF205.5
aI4262
aF20.115844712509308
aI5
ag2549
asg4
(g8
S'\x97\xb7\x00\x00'
p2551
tp2552
Rp2553
(lp2554
F94.5
aF116.5
aF266.5
aI51
aF4.601052455660459
aI1
ag2553
asg4
(g8
S'\x9b\x1f\x01\x00'
p2555
tp2556
Rp2557
(lp2558
F51.5
aF134.5
aF143.5
aI2274
aF16.31538323054481
aI6
ag2557
asg4
(g8
S'\x9e\xa7\x00\x00'
p2559
tp2560
Rp2561
(lp2562
F116.5
aF45.5
aF174.5
aI2224
aF16.19491676266039
aI4
ag2561
asg4
(g8
S'\x9bR\x03\x00'
p2563
tp2564
Rp2565
(lp2566
F152.5
aF38.5
aF280.5
aI1721
aF14.868280622693577
aI4
ag2565
asg4
(g8
S'\xa7O\x04\x00'
p2567
tp2568
Rp2569
(lp2570
F81.5
aF150.5
aF133.5
aI3880
aF19.49594844632264
aI9
ag2569
asg4
(g8
S'\xae\xaf\x02\x00'
p2571
tp2572
Rp2573
(lp2574
F96.5
aF163.5
aF120.5
aI485
aF9.74797422316132
aI4
ag2573
asg4
(g8
S'\xaf?\x01\x00'
p2575
tp2576
Rp2577
(lp2578
F127.5
aF72.5
aF56.5
aI60
aF4.857180126010562
aI4
ag2577
asg4
(g8
S'\xb5\x1f\x00\x00'
p2579
tp2580
Rp2581
(lp2582
F145.5
aF67.5
aF67.5
aI3281
aF18.436106263965915
aI7
ag2581
asg4
(g8
S'\xbdG\x00\x00'
p2583
tp2584
Rp2585
(lp2586
F100.5
aF202.5
aF169.5
aI4655
aF20.716053360375266
aI5
ag2585
asg4
(g8
S'\xbe\xaf\x01\x00'
p2587
tp2588
Rp2589
(lp2590
F193.5
aF70.5
aF143.5
aI2913
aF17.719329634408986
aI4
ag2589
asg4
(g8
S'\xc4w\x00\x00'
p2591
tp2592
Rp2593
(lp2594
F74.5
aF96.5
aF62.5
aI2660
aF17.190730745070326
aI6
ag2593
asg4
(g8
S"\xc9'\x00\x00"
p2595
tp2596
Rp2597
(lp2598
F31.5
aF158.5
aF125.5
aI2420
aF16.65733734677929
aI3
ag2597
asg4
(g8
S'\xcf\x8f\x01\x00'
p2599
tp2600
Rp2601
(lp2602
F193.5
aF113.5
aF116.5
aI1567
aF14.410867487457997
aI4
ag2601
asg4
(g8
S'\xd0/\x01\x00'
p2603
tp2604
Rp2605
(lp2606
F28.5
aF131.5
aF59.5
aI5586
aF22.014091623047005
aI4
ag2605
asg4
(g8
S"\xd2'\x01\x00"
p2607
tp2608
Rp2609
(lp2610
F46.5
aF169.5
aF106.5
aI3498
aF18.833905815755838
aI7
ag2609
asg4
(g8
S'\xd2\x89\x04\x00'
p2611
tp2612
Rp2613
(lp2614
F58.5
aF140.5
aF48.5
aI2576
aF17.007836756888913
aI5
ag2613
asg4
(g8
S'\xd6\x07\x00\x00'
p2615
tp2616
Rp2617
(lp2618
F93.5
aF76.5
aF167.5
aI44
aF4.380106645730805
aI3
ag2617
asg4
(g8
S'\xd8\xbf\x00\x00'
p2619
tp2620
Rp2621
(lp2622
F162.5
aF71.5
aF56.5
aI2495
aF16.827669581983052
aI8
ag2621
asg4
(g8
S'\xdbW\x01\x00'
p2623
tp2624
Rp2625
(lp2626
F89.5
aF126.5
aF290.5
aI1972
aF15.558561089615745
aI5
ag2625
asg4
(g8
S'\xdf\xbf\x00\x00'
p2627
tp2628
Rp2629
(lp2630
F196.5
aF89.5
aF80.5
aI5272
aF21.593626891914496
aI5
ag2629
asg4
(g8
S'\xa7\xd2\x04\x00'
p2631
tp2632
Rp2633
(lp2634
F53.5
aF90.5
aF74.5
aI3321
aF18.51072452642445
aI5
ag2633
asg4
(g8
S'\xecW\x02\x00'
p2635
tp2636
Rp2637
(lp2638
F141.5
aF197.5
aF183.5
aI3962
aF19.632334707064018
aI4
ag2637
asg4
(g8
S'\xf3/\x01\x00'
p2639
tp2640
Rp2641
(lp2642
F117.5
aF71.5
aF242.5
aI211
aF7.3863170325454695
aI2
ag2641
asg4
(g8
S'\xfec\x03\x00'
p2643
tp2644
Rp2645
(lp2646
F170.5
aF159.5
aF194.5
aI83
aF5.412025364749767
aI1
ag2645
asg4
(g8
S'\xa9\xb2\x02\x00'
p2647
tp2648
Rp2649
(lp2650
F122.5
aF148.5
aF161.5
aI3983
aF19.666959707738826
aI7
ag2649
asg4
(g8
S'\xfb\xdf\x04\x00'
p2651
tp2652
Rp2653
(lp2654
F29.5
aF124.5
aF166.5
aI5180
aF21.4672812325392
aI5
ag2653
asg4
(g8
S'\xfc\x1f\x03\x00'
p2655
tp2656
Rp2657
(lp2658
F178.5
aF136.5
aF158.5
aI8666
aF25.484337859901554
aI7
ag2657
as.